---
triple:          'arm64-apple-darwin'
binary-path:     '/Users/nantaporn/Documents/Algorithm/output/a63_q1b_virus2'
relocations:
  - { offsetInCU: 0x4283, offset: 0x4283, size: 0x8, addend: 0x0, symName: __ZNSt3__124__put_character_sequenceB8ue170006IcNS_11char_traitsIcEEEERNS_13basic_ostreamIT_T0_EES7_PKS4_m, symObjAddr: 0x1EA0, symBinAddr: 0x100002F80, symSize: 0x1EC }
  - { offsetInCU: 0x5DE3, offset: 0x5DE3, size: 0x8, addend: 0x0, symName: __ZNSt3__1lsB8ue170006INS_11char_traitsIcEEEERNS_13basic_ostreamIcT_EES6_PKc, symObjAddr: 0x5A0, symBinAddr: 0x100001680, symSize: 0x48 }
  - { offsetInCU: 0x5E29, offset: 0x5E29, size: 0x8, addend: 0x0, symName: __ZNSt3__14endlB8ue170006IcNS_11char_traitsIcEEEERNS_13basic_ostreamIT_T0_EES7_, symObjAddr: 0x614, symBinAddr: 0x1000016F4, symSize: 0x58 }
  - { offsetInCU: 0x5E69, offset: 0x5E69, size: 0x8, addend: 0x0, symName: __ZNSt3__122__make_exception_guardB8ue170006INS_6vectorIiNS_9allocatorIiEEE16__destroy_vectorEEENS_28__exception_guard_exceptionsIT_EES7_, symObjAddr: 0x8DC, symBinAddr: 0x1000019BC, symSize: 0x40 }
  - { offsetInCU: 0x5E9E, offset: 0x5E9E, size: 0x8, addend: 0x0, symName: __ZNSt3__119__allocate_at_leastB8ue170006INS_9allocatorIiEEEENS_19__allocation_resultINS_16allocator_traitsIT_E7pointerEEERS5_m, symObjAddr: 0xBC4, symBinAddr: 0x100001CA4, symSize: 0x40 }
  - { offsetInCU: 0x5EE1, offset: 0x5EE1, size: 0x8, addend: 0x0, symName: __ZNSt3__13minB8ue170006ImEERKT_S3_S3_, symObjAddr: 0xD00, symBinAddr: 0x100001DE0, symSize: 0x2C }
  - { offsetInCU: 0x6125, offset: 0x6125, size: 0x8, addend: 0x0, symName: __ZNSt3__13minB8ue170006ImNS_6__lessIvvEEEERKT_S5_S5_T0_, symObjAddr: 0xD70, symBinAddr: 0x100001E50, symSize: 0x54 }
  - { offsetInCU: 0x61C4, offset: 0x61C4, size: 0x8, addend: 0x0, symName: __ZNSt3__120__throw_length_errorB8ue170006EPKc, symObjAddr: 0xE14, symBinAddr: 0x100001EF4, symSize: 0x64 }
  - { offsetInCU: 0x61EE, offset: 0x61EE, size: 0x8, addend: 0x0, symName: __ZNSt3__117__libcpp_allocateB8ue170006Emm, symObjAddr: 0xF84, symBinAddr: 0x100002064, symSize: 0x28 }
  - { offsetInCU: 0x622B, offset: 0x622B, size: 0x8, addend: 0x0, symName: __ZNSt3__121__libcpp_operator_newB8ue170006IJmEEEPvDpT_, symObjAddr: 0xFAC, symBinAddr: 0x10000208C, symSize: 0x24 }
  - { offsetInCU: 0x6264, offset: 0x6264, size: 0x8, addend: 0x0, symName: __ZNSt3__112__to_addressB8ue170006IiEEPT_S2_, symObjAddr: 0x10C8, symBinAddr: 0x1000021A8, symSize: 0x14 }
  - { offsetInCU: 0x6299, offset: 0x6299, size: 0x8, addend: 0x0, symName: __ZNSt3__130__uninitialized_allocator_copyB8ue170006INS_9allocatorIiEEPiS3_S3_EET2_RT_T0_T1_S4_, symObjAddr: 0x1178, symBinAddr: 0x100002258, symSize: 0x80 }
  - { offsetInCU: 0x6336, offset: 0x6336, size: 0x8, addend: 0x0, symName: __ZNSt3__114__unwrap_rangeB8ue170006IPiS1_EENS_4pairIT0_S3_EET_S5_, symObjAddr: 0x1268, symBinAddr: 0x100002348, symSize: 0x60 }
  - { offsetInCU: 0x6382, offset: 0x6382, size: 0x8, addend: 0x0, symName: __ZNSt3__135__uninitialized_allocator_copy_implB8ue170006INS_9allocatorIiEEiiiLPv0EEEPT2_RT_PT0_S9_S5_, symObjAddr: 0x12C8, symBinAddr: 0x1000023A8, symSize: 0x38 }
  - { offsetInCU: 0x6403, offset: 0x6403, size: 0x8, addend: 0x0, symName: __ZNSt3__113__unwrap_iterB8ue170006IPiNS_18__unwrap_iter_implIS1_Lb1EEELi0EEEDTclsrT0_8__unwrapclsr3stdE7declvalIT_EEEES5_, symObjAddr: 0x1300, symBinAddr: 0x1000023E0, symSize: 0x24 }
  - { offsetInCU: 0x6447, offset: 0x6447, size: 0x8, addend: 0x0, symName: __ZNSt3__113__rewrap_iterB8ue170006IPiS1_NS_18__unwrap_iter_implIS1_Lb1EEEEET_S4_T0_, symObjAddr: 0x1324, symBinAddr: 0x100002404, symSize: 0x3C }
  - { offsetInCU: 0x649C, offset: 0x649C, size: 0x8, addend: 0x0, symName: __ZNSt3__19make_pairB8ue170006IPiS1_EENS_4pairINS_18__unwrap_ref_decayIT_E4typeENS3_IT0_E4typeEEEOS4_OS7_, symObjAddr: 0x1360, symBinAddr: 0x100002440, symSize: 0x38 }
  - { offsetInCU: 0x65EE, offset: 0x65EE, size: 0x8, addend: 0x0, symName: __ZNSt3__14copyB8ue170006IPiS1_EET0_T_S3_S2_, symObjAddr: 0x1408, symBinAddr: 0x1000024E8, symSize: 0x40 }
  - { offsetInCU: 0x6648, offset: 0x6648, size: 0x8, addend: 0x0, symName: __ZNSt3__16__copyB8ue170006INS_17_ClassicAlgPolicyEPiS2_S2_EENS_4pairIT0_T2_EES4_T1_S5_, symObjAddr: 0x1448, symBinAddr: 0x100002528, symSize: 0x44 }
  - { offsetInCU: 0x66B4, offset: 0x66B4, size: 0x8, addend: 0x0, symName: __ZNSt3__123__dispatch_copy_or_moveB8ue170006INS_17_ClassicAlgPolicyENS_11__copy_loopIS1_EENS_14__copy_trivialEPiS5_S5_EENS_4pairIT2_T4_EES7_T3_S8_, symObjAddr: 0x148C, symBinAddr: 0x10000256C, symSize: 0x44 }
  - { offsetInCU: 0x6732, offset: 0x6732, size: 0x8, addend: 0x0, symName: __ZNSt3__121__unwrap_and_dispatchB8ue170006INS_10__overloadINS_11__copy_loopINS_17_ClassicAlgPolicyEEENS_14__copy_trivialEEEPiS7_S7_Li0EEENS_4pairIT0_T2_EES9_T1_SA_, symObjAddr: 0x14D0, symBinAddr: 0x1000025B0, symSize: 0xB4 }
  - { offsetInCU: 0x6806, offset: 0x6806, size: 0x8, addend: 0x0, symName: __ZNSt3__114__rewrap_rangeB8ue170006IPiS1_EET_S2_T0_, symObjAddr: 0x15CC, symBinAddr: 0x1000026AC, symSize: 0x2C }
  - { offsetInCU: 0x6852, offset: 0x6852, size: 0x8, addend: 0x0, symName: __ZNSt3__119__copy_trivial_implB8ue170006IiiEENS_4pairIPT_PT0_EES3_S3_S5_, symObjAddr: 0x15F8, symBinAddr: 0x1000026D8, symSize: 0x80 }
  - { offsetInCU: 0x68BA, offset: 0x68BA, size: 0x8, addend: 0x0, symName: __ZNSt3__119__constexpr_memmoveB8ue170006IiiLi0EEEPT_S2_PT0_NS_15__element_countE, symObjAddr: 0x1678, symBinAddr: 0x100002758, symSize: 0x64 }
  - { offsetInCU: 0x6928, offset: 0x6928, size: 0x8, addend: 0x0, symName: __ZNSt3__19make_pairB8ue170006IRPiS1_EENS_4pairINS_18__unwrap_ref_decayIT_E4typeENS4_IT0_E4typeEEEOS5_OS8_, symObjAddr: 0x16DC, symBinAddr: 0x1000027BC, symSize: 0x38 }
  - { offsetInCU: 0x69CA, offset: 0x69CA, size: 0x8, addend: 0x0, symName: __ZNSt3__119__libcpp_deallocateB8ue170006EPvmm, symObjAddr: 0x1B18, symBinAddr: 0x100002BF8, symSize: 0x30 }
  - { offsetInCU: 0x6A12, offset: 0x6A12, size: 0x8, addend: 0x0, symName: __ZNSt3__127__do_deallocate_handle_sizeB8ue170006IJEEEvPvmDpT_, symObjAddr: 0x1B48, symBinAddr: 0x100002C28, symSize: 0x28 }
  - { offsetInCU: 0x6A50, offset: 0x6A50, size: 0x8, addend: 0x0, symName: __ZNSt3__124__libcpp_operator_deleteB8ue170006IJPvEEEvDpT_, symObjAddr: 0x1B70, symBinAddr: 0x100002C50, symSize: 0x24 }
  - { offsetInCU: 0x6A85, offset: 0x6A85, size: 0x8, addend: 0x0, symName: __ZNSt3__116__pad_and_outputB8ue170006IcNS_11char_traitsIcEEEENS_19ostreambuf_iteratorIT_T0_EES6_PKS4_S8_S8_RNS_8ios_baseES4_, symObjAddr: 0x20DC, symBinAddr: 0x1000031BC, symSize: 0x240 }
  - { offsetInCU: 0x6B54, offset: 0x6B54, size: 0x8, addend: 0x0, symName: __ZNSt3__112__to_addressB8ue170006IKcEEPT_S3_, symObjAddr: 0x2644, symBinAddr: 0x100003724, symSize: 0x14 }
  - { offsetInCU: 0x6BBC, offset: 0x6BBC, size: 0x8, addend: 0x0, symName: __ZNSt3__19use_facetB8ue170006INS_5ctypeIcEEEERKT_RKNS_6localeE, symObjAddr: 0x28C4, symBinAddr: 0x1000039A4, symSize: 0x2C }
  - { offsetInCU: 0x7089, offset: 0x7089, size: 0x8, addend: 0x0, symName: __ZNSt3__118__constexpr_strlenB8ue170006EPKc, symObjAddr: 0x295C, symBinAddr: 0x100003A3C, symSize: 0x24 }
  - { offsetInCU: 0x73C3, offset: 0x73C3, size: 0x8, addend: 0x0, symName: __ZSt28__throw_bad_array_new_lengthB8ue170006v, symObjAddr: 0xF50, symBinAddr: 0x100002030, symSize: 0x34 }
  - { offsetInCU: 0x780A, offset: 0x780A, size: 0x8, addend: 0x0, symName: __Z3powB8ue170006IiiENSt3__19enable_ifIXaasr3std13is_arithmeticIT_EE5valuesr3std13is_arithmeticIT0_EE5valueENS0_9__promoteIS2_S3_vEEE4type4typeES2_S3_, symObjAddr: 0x500, symBinAddr: 0x1000015E0, symSize: 0x44 }
  - { offsetInCU: 0x9BA4, offset: 0x9BA4, size: 0x8, addend: 0x0, symName: __Z11check_virusNSt3__16vectorIiNS_9allocatorIiEEEEii, symObjAddr: 0x0, symBinAddr: 0x1000010E0, symSize: 0x298 }
  - { offsetInCU: 0x9C58, offset: 0x9C58, size: 0x8, addend: 0x0, symName: __ZNSt3__16vectorIiNS_9allocatorIiEEEixB8ue170006Em, symObjAddr: 0x298, symBinAddr: 0x100001378, symSize: 0x24 }
  - { offsetInCU: 0x9C8F, offset: 0x9C8F, size: 0x8, addend: 0x0, symName: __ZNSt3__16vectorIiNS_9allocatorIiEEEC1ERKS3_, symObjAddr: 0x2BC, symBinAddr: 0x10000139C, symSize: 0x34 }
  - { offsetInCU: 0x9CCA, offset: 0x9CCA, size: 0x8, addend: 0x0, symName: __ZNSt3__16vectorIiNS_9allocatorIiEEED1B8ue170006Ev, symObjAddr: 0x2F0, symBinAddr: 0x1000013D0, symSize: 0x2C }
  - { offsetInCU: 0x9CF4, offset: 0x9CF4, size: 0x8, addend: 0x0, symName: _main, symObjAddr: 0x31C, symBinAddr: 0x1000013FC, symSize: 0x1E4 }
  - { offsetInCU: 0x9D8C, offset: 0x9D8C, size: 0x8, addend: 0x0, symName: __ZNSt3__16vectorIiNS_9allocatorIiEEEC1Em, symObjAddr: 0x544, symBinAddr: 0x100001624, symSize: 0x34 }
  - { offsetInCU: 0x9DC7, offset: 0x9DC7, size: 0x8, addend: 0x0, symName: __ZNKSt3__16vectorIiNS_9allocatorIiEEE4sizeB8ue170006Ev, symObjAddr: 0x578, symBinAddr: 0x100001658, symSize: 0x28 }
  - { offsetInCU: 0x9DED, offset: 0x9DED, size: 0x8, addend: 0x0, symName: __ZNSt3__113basic_ostreamIcNS_11char_traitsIcEEElsB8ue170006EPFRS3_S4_E, symObjAddr: 0x5E8, symBinAddr: 0x1000016C8, symSize: 0x2C }
  - { offsetInCU: 0x9E21, offset: 0x9E21, size: 0x8, addend: 0x0, symName: __ZNSt3__16vectorIiNS_9allocatorIiEEEC2ERKS3_, symObjAddr: 0x66C, symBinAddr: 0x10000174C, symSize: 0x94 }
  - { offsetInCU: 0x9E66, offset: 0x9E66, size: 0x8, addend: 0x0, symName: __ZNSt3__116allocator_traitsINS_9allocatorIiEEE37select_on_container_copy_constructionB8ue170006IS2_vvEES2_RKS2_, symObjAddr: 0x700, symBinAddr: 0x1000017E0, symSize: 0x10 }
  - { offsetInCU: 0x9E95, offset: 0x9E95, size: 0x8, addend: 0x0, symName: __ZNKSt3__16vectorIiNS_9allocatorIiEEE7__allocB8ue170006Ev, symObjAddr: 0x710, symBinAddr: 0x1000017F0, symSize: 0x28 }
  - { offsetInCU: 0x9EC5, offset: 0x9EC5, size: 0x8, addend: 0x0, symName: __ZNSt3__117__compressed_pairIPiNS_9allocatorIiEEEC1B8ue170006IDnS3_EEOT_OT0_, symObjAddr: 0x738, symBinAddr: 0x100001818, symSize: 0x3C }
  - { offsetInCU: 0x9F1D, offset: 0x9F1D, size: 0x8, addend: 0x0, symName: __ZNSt3__16vectorIiNS_9allocatorIiEEE16__init_with_sizeB8ue170006IPiS5_EEvT_T0_m, symObjAddr: 0x774, symBinAddr: 0x100001854, symSize: 0xB8 }
  - { offsetInCU: 0x9F91, offset: 0x9F91, size: 0x8, addend: 0x0, symName: __ZNKSt3__117__compressed_pairIPiNS_9allocatorIiEEE6secondB8ue170006Ev, symObjAddr: 0x82C, symBinAddr: 0x10000190C, symSize: 0x24 }
  - { offsetInCU: 0x9FB7, offset: 0x9FB7, size: 0x8, addend: 0x0, symName: __ZNKSt3__122__compressed_pair_elemINS_9allocatorIiEELi1ELb1EE5__getB8ue170006Ev, symObjAddr: 0x850, symBinAddr: 0x100001930, symSize: 0x14 }
  - { offsetInCU: 0x9FDD, offset: 0x9FDD, size: 0x8, addend: 0x0, symName: __ZNSt3__117__compressed_pairIPiNS_9allocatorIiEEEC2B8ue170006IDnS3_EEOT_OT0_, symObjAddr: 0x864, symBinAddr: 0x100001944, symSize: 0x44 }
  - { offsetInCU: 0xA035, offset: 0xA035, size: 0x8, addend: 0x0, symName: __ZNSt3__122__compressed_pair_elemIPiLi0ELb0EEC2B8ue170006IDnvEEOT_, symObjAddr: 0x8A8, symBinAddr: 0x100001988, symSize: 0x1C }
  - { offsetInCU: 0xA077, offset: 0xA077, size: 0x8, addend: 0x0, symName: __ZNSt3__122__compressed_pair_elemINS_9allocatorIiEELi1ELb1EEC2B8ue170006IS2_vEEOT_, symObjAddr: 0x8C4, symBinAddr: 0x1000019A4, symSize: 0x18 }
  - { offsetInCU: 0xA0B9, offset: 0xA0B9, size: 0x8, addend: 0x0, symName: __ZNSt3__16vectorIiNS_9allocatorIiEEE16__destroy_vectorC1B8ue170006ERS3_, symObjAddr: 0x91C, symBinAddr: 0x1000019FC, symSize: 0x34 }
  - { offsetInCU: 0xA0F2, offset: 0xA0F2, size: 0x8, addend: 0x0, symName: __ZNSt3__16vectorIiNS_9allocatorIiEEE11__vallocateB8ue170006Em, symObjAddr: 0x950, symBinAddr: 0x100001A30, symSize: 0xAC }
  - { offsetInCU: 0xA136, offset: 0xA136, size: 0x8, addend: 0x0, symName: __ZNSt3__16vectorIiNS_9allocatorIiEEE18__construct_at_endIPiS5_EEvT_T0_m, symObjAddr: 0x9FC, symBinAddr: 0x100001ADC, symSize: 0x8C }
  - { offsetInCU: 0xA1AC, offset: 0xA1AC, size: 0x8, addend: 0x0, symName: __ZNSt3__128__exception_guard_exceptionsINS_6vectorIiNS_9allocatorIiEEE16__destroy_vectorEE10__completeB8ue170006Ev, symObjAddr: 0xA88, symBinAddr: 0x100001B68, symSize: 0x1C }
  - { offsetInCU: 0xA1D2, offset: 0xA1D2, size: 0x8, addend: 0x0, symName: __ZNSt3__128__exception_guard_exceptionsINS_6vectorIiNS_9allocatorIiEEE16__destroy_vectorEED1B8ue170006Ev, symObjAddr: 0xAA4, symBinAddr: 0x100001B84, symSize: 0x2C }
  - { offsetInCU: 0xA1FC, offset: 0xA1FC, size: 0x8, addend: 0x0, symName: __ZNSt3__128__exception_guard_exceptionsINS_6vectorIiNS_9allocatorIiEEE16__destroy_vectorEEC1B8ue170006ES5_, symObjAddr: 0xAD0, symBinAddr: 0x100001BB0, symSize: 0x34 }
  - { offsetInCU: 0xA234, offset: 0xA234, size: 0x8, addend: 0x0, symName: __ZNSt3__128__exception_guard_exceptionsINS_6vectorIiNS_9allocatorIiEEE16__destroy_vectorEEC2B8ue170006ES5_, symObjAddr: 0xB04, symBinAddr: 0x100001BE4, symSize: 0x24 }
  - { offsetInCU: 0xA26C, offset: 0xA26C, size: 0x8, addend: 0x0, symName: __ZNSt3__16vectorIiNS_9allocatorIiEEE16__destroy_vectorC2B8ue170006ERS3_, symObjAddr: 0xB28, symBinAddr: 0x100001C08, symSize: 0x20 }
  - { offsetInCU: 0xA2A5, offset: 0xA2A5, size: 0x8, addend: 0x0, symName: __ZNKSt3__16vectorIiNS_9allocatorIiEEE8max_sizeEv, symObjAddr: 0xB48, symBinAddr: 0x100001C28, symSize: 0x60 }
  - { offsetInCU: 0xA2CD, offset: 0xA2CD, size: 0x8, addend: 0x0, symName: __ZNKSt3__16vectorIiNS_9allocatorIiEEE20__throw_length_errorB8ue170006Ev, symObjAddr: 0xBA8, symBinAddr: 0x100001C88, symSize: 0x1C }
  - { offsetInCU: 0xA2F3, offset: 0xA2F3, size: 0x8, addend: 0x0, symName: __ZNSt3__16vectorIiNS_9allocatorIiEEE7__allocB8ue170006Ev, symObjAddr: 0xC04, symBinAddr: 0x100001CE4, symSize: 0x28 }
  - { offsetInCU: 0xA319, offset: 0xA319, size: 0x8, addend: 0x0, symName: __ZNSt3__16vectorIiNS_9allocatorIiEEE9__end_capB8ue170006Ev, symObjAddr: 0xC2C, symBinAddr: 0x100001D0C, symSize: 0x28 }
  - { offsetInCU: 0xA33F, offset: 0xA33F, size: 0x8, addend: 0x0, symName: __ZNKSt3__16vectorIiNS_9allocatorIiEEE14__annotate_newB8ue170006Em, symObjAddr: 0xC54, symBinAddr: 0x100001D34, symSize: 0xAC }
  - { offsetInCU: 0xA374, offset: 0xA374, size: 0x8, addend: 0x0, symName: __ZNSt3__116allocator_traitsINS_9allocatorIiEEE8max_sizeB8ue170006IS2_vEEmRKS2_, symObjAddr: 0xD2C, symBinAddr: 0x100001E0C, symSize: 0x24 }
  - { offsetInCU: 0xA3A2, offset: 0xA3A2, size: 0x8, addend: 0x0, symName: __ZNSt3__114numeric_limitsIlE3maxB8ue170006Ev, symObjAddr: 0xD50, symBinAddr: 0x100001E30, symSize: 0x14 }
  - { offsetInCU: 0xA3CA, offset: 0xA3CA, size: 0x8, addend: 0x0, symName: __ZNKSt3__16__lessIvvEclB8ue170006ImmEEbRKT_RKT0_, symObjAddr: 0xDC4, symBinAddr: 0x100001EA4, symSize: 0x34 }
  - { offsetInCU: 0xA41E, offset: 0xA41E, size: 0x8, addend: 0x0, symName: __ZNKSt3__19allocatorIiE8max_sizeB8ue170006Ev, symObjAddr: 0xDF8, symBinAddr: 0x100001ED8, symSize: 0x14 }
  - { offsetInCU: 0xA444, offset: 0xA444, size: 0x8, addend: 0x0, symName: __ZNSt3__123__libcpp_numeric_limitsIlLb1EE3maxB8ue170006Ev, symObjAddr: 0xE0C, symBinAddr: 0x100001EEC, symSize: 0x8 }
  - { offsetInCU: 0xA458, offset: 0xA458, size: 0x8, addend: 0x0, symName: __ZNSt12length_errorC1B8ue170006EPKc, symObjAddr: 0xE78, symBinAddr: 0x100001F58, symSize: 0x34 }
  - { offsetInCU: 0xA490, offset: 0xA490, size: 0x8, addend: 0x0, symName: __ZNSt12length_errorC2B8ue170006EPKc, symObjAddr: 0xEAC, symBinAddr: 0x100001F8C, symSize: 0x4C }
  - { offsetInCU: 0xA4C8, offset: 0xA4C8, size: 0x8, addend: 0x0, symName: __ZNSt3__19allocatorIiE8allocateB8ue170006Em, symObjAddr: 0xEF8, symBinAddr: 0x100001FD8, symSize: 0x58 }
  - { offsetInCU: 0xA4FC, offset: 0xA4FC, size: 0x8, addend: 0x0, symName: __ZNSt3__117__compressed_pairIPiNS_9allocatorIiEEE6secondB8ue170006Ev, symObjAddr: 0xFD0, symBinAddr: 0x1000020B0, symSize: 0x24 }
  - { offsetInCU: 0xA522, offset: 0xA522, size: 0x8, addend: 0x0, symName: __ZNSt3__122__compressed_pair_elemINS_9allocatorIiEELi1ELb1EE5__getB8ue170006Ev, symObjAddr: 0xFF4, symBinAddr: 0x1000020D4, symSize: 0x14 }
  - { offsetInCU: 0xA548, offset: 0xA548, size: 0x8, addend: 0x0, symName: __ZNSt3__117__compressed_pairIPiNS_9allocatorIiEEE5firstB8ue170006Ev, symObjAddr: 0x1008, symBinAddr: 0x1000020E8, symSize: 0x24 }
  - { offsetInCU: 0xA56E, offset: 0xA56E, size: 0x8, addend: 0x0, symName: __ZNSt3__122__compressed_pair_elemIPiLi0ELb0EE5__getB8ue170006Ev, symObjAddr: 0x102C, symBinAddr: 0x10000210C, symSize: 0x14 }
  - { offsetInCU: 0xA594, offset: 0xA594, size: 0x8, addend: 0x0, symName: __ZNKSt3__16vectorIiNS_9allocatorIiEEE31__annotate_contiguous_containerB8ue170006EPKvS5_S5_S5_, symObjAddr: 0x1040, symBinAddr: 0x100002120, symSize: 0x20 }
  - { offsetInCU: 0xA5E6, offset: 0xA5E6, size: 0x8, addend: 0x0, symName: __ZNKSt3__16vectorIiNS_9allocatorIiEEE4dataB8ue170006Ev, symObjAddr: 0x1060, symBinAddr: 0x100002140, symSize: 0x28 }
  - { offsetInCU: 0xA60C, offset: 0xA60C, size: 0x8, addend: 0x0, symName: __ZNKSt3__16vectorIiNS_9allocatorIiEEE8capacityB8ue170006Ev, symObjAddr: 0x1088, symBinAddr: 0x100002168, symSize: 0x40 }
  - { offsetInCU: 0xA632, offset: 0xA632, size: 0x8, addend: 0x0, symName: __ZNKSt3__16vectorIiNS_9allocatorIiEEE9__end_capB8ue170006Ev, symObjAddr: 0x10DC, symBinAddr: 0x1000021BC, symSize: 0x28 }
  - { offsetInCU: 0xA658, offset: 0xA658, size: 0x8, addend: 0x0, symName: __ZNKSt3__117__compressed_pairIPiNS_9allocatorIiEEE5firstB8ue170006Ev, symObjAddr: 0x1104, symBinAddr: 0x1000021E4, symSize: 0x24 }
  - { offsetInCU: 0xA67E, offset: 0xA67E, size: 0x8, addend: 0x0, symName: __ZNKSt3__122__compressed_pair_elemIPiLi0ELb0EE5__getB8ue170006Ev, symObjAddr: 0x1128, symBinAddr: 0x100002208, symSize: 0x14 }
  - { offsetInCU: 0xA6BD, offset: 0xA6BD, size: 0x8, addend: 0x0, symName: __ZNSt3__16vectorIiNS_9allocatorIiEEE21_ConstructTransactionC1B8ue170006ERS3_m, symObjAddr: 0x113C, symBinAddr: 0x10000221C, symSize: 0x3C }
  - { offsetInCU: 0xA705, offset: 0xA705, size: 0x8, addend: 0x0, symName: __ZNSt3__16vectorIiNS_9allocatorIiEEE21_ConstructTransactionD1B8ue170006Ev, symObjAddr: 0x11F8, symBinAddr: 0x1000022D8, symSize: 0x2C }
  - { offsetInCU: 0xA72F, offset: 0xA72F, size: 0x8, addend: 0x0, symName: __ZNSt3__16vectorIiNS_9allocatorIiEEE21_ConstructTransactionC2B8ue170006ERS3_m, symObjAddr: 0x1224, symBinAddr: 0x100002304, symSize: 0x44 }
  - { offsetInCU: 0xA795, offset: 0xA795, size: 0x8, addend: 0x0, symName: __ZNSt3__14pairIPiS1_EC1B8ue170006IS1_S1_LPv0EEEOT_OT0_, symObjAddr: 0x1398, symBinAddr: 0x100002478, symSize: 0x3C }
  - { offsetInCU: 0xA7F3, offset: 0xA7F3, size: 0x8, addend: 0x0, symName: __ZNSt3__14pairIPiS1_EC2B8ue170006IS1_S1_LPv0EEEOT_OT0_, symObjAddr: 0x13D4, symBinAddr: 0x1000024B4, symSize: 0x34 }
  - { offsetInCU: 0xA85B, offset: 0xA85B, size: 0x8, addend: 0x0, symName: __ZNKSt3__114__copy_trivialclB8ue170006IiiLi0EEENS_4pairIPT_PT0_EES4_S4_S6_, symObjAddr: 0x1584, symBinAddr: 0x100002664, symSize: 0x48 }
  - { offsetInCU: 0xA8C3, offset: 0xA8C3, size: 0x8, addend: 0x0, symName: __ZNSt3__14pairIPiS1_EC1B8ue170006IRS1_S1_LPv0EEEOT_OT0_, symObjAddr: 0x1714, symBinAddr: 0x1000027F4, symSize: 0x3C }
  - { offsetInCU: 0xA921, offset: 0xA921, size: 0x8, addend: 0x0, symName: __ZNSt3__14pairIPiS1_EC2B8ue170006IRS1_S1_LPv0EEEOT_OT0_, symObjAddr: 0x1750, symBinAddr: 0x100002830, symSize: 0x34 }
  - { offsetInCU: 0xA97F, offset: 0xA97F, size: 0x8, addend: 0x0, symName: __ZNSt3__118__unwrap_iter_implIPiLb1EE8__unwrapB8ue170006ES1_, symObjAddr: 0x1784, symBinAddr: 0x100002864, symSize: 0x24 }
  - { offsetInCU: 0xA9A2, offset: 0xA9A2, size: 0x8, addend: 0x0, symName: __ZNSt3__118__unwrap_iter_implIPiLb1EE8__rewrapB8ue170006ES1_S1_, symObjAddr: 0x17A8, symBinAddr: 0x100002888, symSize: 0x50 }
  - { offsetInCU: 0xA9D3, offset: 0xA9D3, size: 0x8, addend: 0x0, symName: __ZNSt3__16vectorIiNS_9allocatorIiEEE21_ConstructTransactionD2B8ue170006Ev, symObjAddr: 0x17F8, symBinAddr: 0x1000028D8, symSize: 0x20 }
  - { offsetInCU: 0xA9FD, offset: 0xA9FD, size: 0x8, addend: 0x0, symName: __ZNSt3__128__exception_guard_exceptionsINS_6vectorIiNS_9allocatorIiEEE16__destroy_vectorEED2B8ue170006Ev, symObjAddr: 0x1818, symBinAddr: 0x1000028F8, symSize: 0x50 }
  - { offsetInCU: 0xAA27, offset: 0xAA27, size: 0x8, addend: 0x0, symName: __ZNSt3__16vectorIiNS_9allocatorIiEEE16__destroy_vectorclB8ue170006Ev, symObjAddr: 0x1868, symBinAddr: 0x100002948, symSize: 0x90 }
  - { offsetInCU: 0xAA4D, offset: 0xAA4D, size: 0x8, addend: 0x0, symName: __ZNSt3__16vectorIiNS_9allocatorIiEEE7__clearB8ue170006Ev, symObjAddr: 0x18F8, symBinAddr: 0x1000029D8, symSize: 0x28 }
  - { offsetInCU: 0xAA73, offset: 0xAA73, size: 0x8, addend: 0x0, symName: __ZNKSt3__16vectorIiNS_9allocatorIiEEE17__annotate_deleteB8ue170006Ev, symObjAddr: 0x1920, symBinAddr: 0x100002A00, symSize: 0xB8 }
  - { offsetInCU: 0xAA99, offset: 0xAA99, size: 0x8, addend: 0x0, symName: __ZNSt3__116allocator_traitsINS_9allocatorIiEEE10deallocateB8ue170006ERS2_Pim, symObjAddr: 0x19D8, symBinAddr: 0x100002AB8, symSize: 0x34 }
  - { offsetInCU: 0xAADB, offset: 0xAADB, size: 0x8, addend: 0x0, symName: __ZNSt3__16vectorIiNS_9allocatorIiEEE22__base_destruct_at_endB8ue170006EPi, symObjAddr: 0x1A0C, symBinAddr: 0x100002AEC, symSize: 0x8C }
  - { offsetInCU: 0xAB1F, offset: 0xAB1F, size: 0x8, addend: 0x0, symName: __ZNSt3__116allocator_traitsINS_9allocatorIiEEE7destroyB8ue170006IivEEvRS2_PT_, symObjAddr: 0x1A98, symBinAddr: 0x100002B78, symSize: 0x2C }
  - { offsetInCU: 0xAB5C, offset: 0xAB5C, size: 0x8, addend: 0x0, symName: __ZNSt3__19allocatorIiE7destroyB8ue170006EPi, symObjAddr: 0x1AC4, symBinAddr: 0x100002BA4, symSize: 0x14 }
  - { offsetInCU: 0xAB90, offset: 0xAB90, size: 0x8, addend: 0x0, symName: __ZNSt3__19allocatorIiE10deallocateB8ue170006EPim, symObjAddr: 0x1AD8, symBinAddr: 0x100002BB8, symSize: 0x40 }
  - { offsetInCU: 0xABD2, offset: 0xABD2, size: 0x8, addend: 0x0, symName: __ZNSt3__16vectorIiNS_9allocatorIiEEED2B8ue170006Ev, symObjAddr: 0x1B94, symBinAddr: 0x100002C74, symSize: 0x40 }
  - { offsetInCU: 0xABFC, offset: 0xABFC, size: 0x8, addend: 0x0, symName: __ZNSt3__16vectorIiNS_9allocatorIiEEEC2Em, symObjAddr: 0x1BD4, symBinAddr: 0x100002CB4, symSize: 0xD4 }
  - { offsetInCU: 0xAC51, offset: 0xAC51, size: 0x8, addend: 0x0, symName: __ZNSt3__117__compressed_pairIPiNS_9allocatorIiEEEC1B8ue170006IDnNS_18__default_init_tagEEEOT_OT0_, symObjAddr: 0x1CA8, symBinAddr: 0x100002D88, symSize: 0x3C }
  - { offsetInCU: 0xACA9, offset: 0xACA9, size: 0x8, addend: 0x0, symName: __ZNSt3__16vectorIiNS_9allocatorIiEEE18__construct_at_endEm, symObjAddr: 0x1CE4, symBinAddr: 0x100002DC4, symSize: 0xC8 }
  - { offsetInCU: 0xAD1C, offset: 0xAD1C, size: 0x8, addend: 0x0, symName: __ZNSt3__117__compressed_pairIPiNS_9allocatorIiEEEC2B8ue170006IDnNS_18__default_init_tagEEEOT_OT0_, symObjAddr: 0x1DAC, symBinAddr: 0x100002E8C, symSize: 0x40 }
  - { offsetInCU: 0xAD74, offset: 0xAD74, size: 0x8, addend: 0x0, symName: __ZNSt3__122__compressed_pair_elemINS_9allocatorIiEELi1ELb1EEC2B8ue170006ENS_18__default_init_tagE, symObjAddr: 0x1DEC, symBinAddr: 0x100002ECC, symSize: 0x2C }
  - { offsetInCU: 0xADA9, offset: 0xADA9, size: 0x8, addend: 0x0, symName: __ZNSt3__19allocatorIiEC2B8ue170006Ev, symObjAddr: 0x1E18, symBinAddr: 0x100002EF8, symSize: 0x2C }
  - { offsetInCU: 0xADD3, offset: 0xADD3, size: 0x8, addend: 0x0, symName: __ZNSt3__116__non_trivial_ifILb1ENS_9allocatorIiEEEC2B8ue170006Ev, symObjAddr: 0x1E44, symBinAddr: 0x100002F24, symSize: 0x14 }
  - { offsetInCU: 0xADFD, offset: 0xADFD, size: 0x8, addend: 0x0, symName: __ZNSt3__116allocator_traitsINS_9allocatorIiEEE9constructB8ue170006IiJEvEEvRS2_PT_DpOT0_, symObjAddr: 0x1E58, symBinAddr: 0x100002F38, symSize: 0x2C }
  - { offsetInCU: 0xAE3F, offset: 0xAE3F, size: 0x8, addend: 0x0, symName: __ZNSt3__19allocatorIiE9constructB8ue170006IiJEEEvPT_DpOT0_, symObjAddr: 0x1E84, symBinAddr: 0x100002F64, symSize: 0x1C }
  - { offsetInCU: 0xAE81, offset: 0xAE81, size: 0x8, addend: 0x0, symName: __ZNSt3__111char_traitsIcE6lengthB8ue170006EPKc, symObjAddr: 0x208C, symBinAddr: 0x10000316C, symSize: 0x34 }
  - { offsetInCU: 0xAEC2, offset: 0xAEC2, size: 0x8, addend: 0x0, symName: __ZNKSt3__113basic_ostreamIcNS_11char_traitsIcEEE6sentrycvbB8ue170006Ev, symObjAddr: 0x20C0, symBinAddr: 0x1000031A0, symSize: 0x1C }
  - { offsetInCU: 0xAEE8, offset: 0xAEE8, size: 0x8, addend: 0x0, symName: __ZNSt3__119ostreambuf_iteratorIcNS_11char_traitsIcEEEC1B8ue170006ERNS_13basic_ostreamIcS2_EE, symObjAddr: 0x231C, symBinAddr: 0x1000033FC, symSize: 0x34 }
  - { offsetInCU: 0xAF20, offset: 0xAF20, size: 0x8, addend: 0x0, symName: __ZNKSt3__18ios_base5flagsB8ue170006Ev, symObjAddr: 0x2350, symBinAddr: 0x100003430, symSize: 0x18 }
  - { offsetInCU: 0xAF48, offset: 0xAF48, size: 0x8, addend: 0x0, symName: __ZNKSt3__19basic_iosIcNS_11char_traitsIcEEE4fillB8ue170006Ev, symObjAddr: 0x2368, symBinAddr: 0x100003448, symSize: 0x64 }
  - { offsetInCU: 0xAF70, offset: 0xAF70, size: 0x8, addend: 0x0, symName: __ZNKSt3__119ostreambuf_iteratorIcNS_11char_traitsIcEEE6failedB8ue170006Ev, symObjAddr: 0x23CC, symBinAddr: 0x1000034AC, symSize: 0x24 }
  - { offsetInCU: 0xAF96, offset: 0xAF96, size: 0x8, addend: 0x0, symName: __ZNSt3__19basic_iosIcNS_11char_traitsIcEEE8setstateB8ue170006Ej, symObjAddr: 0x23F0, symBinAddr: 0x1000034D0, symSize: 0x2C }
  - { offsetInCU: 0xAFCB, offset: 0xAFCB, size: 0x8, addend: 0x0, symName: __ZNKSt3__18ios_base5widthB8ue170006Ev, symObjAddr: 0x241C, symBinAddr: 0x1000034FC, symSize: 0x18 }
  - { offsetInCU: 0xAFF3, offset: 0xAFF3, size: 0x8, addend: 0x0, symName: __ZNSt3__115basic_streambufIcNS_11char_traitsIcEEE5sputnB8ue170006EPKcl, symObjAddr: 0x2434, symBinAddr: 0x100003514, symSize: 0x3C }
  - { offsetInCU: 0xB035, offset: 0xB035, size: 0x8, addend: 0x0, symName: __ZNSt3__112basic_stringIcNS_11char_traitsIcEENS_9allocatorIcEEEC1B8ue170006Emc, symObjAddr: 0x2470, symBinAddr: 0x100003550, symSize: 0x3C }
  - { offsetInCU: 0xB07D, offset: 0xB07D, size: 0x8, addend: 0x0, symName: __ZNKSt3__112basic_stringIcNS_11char_traitsIcEENS_9allocatorIcEEE4dataB8ue170006Ev, symObjAddr: 0x24AC, symBinAddr: 0x10000358C, symSize: 0x28 }
  - { offsetInCU: 0xB0A3, offset: 0xB0A3, size: 0x8, addend: 0x0, symName: __ZNSt3__18ios_base5widthB8ue170006El, symObjAddr: 0x24D4, symBinAddr: 0x1000035B4, symSize: 0x2C }
  - { offsetInCU: 0xB0E9, offset: 0xB0E9, size: 0x8, addend: 0x0, symName: __ZNSt3__112basic_stringIcNS_11char_traitsIcEENS_9allocatorIcEEEC2B8ue170006Emc, symObjAddr: 0x2500, symBinAddr: 0x1000035E0, symSize: 0x4C }
  - { offsetInCU: 0xB131, offset: 0xB131, size: 0x8, addend: 0x0, symName: __ZNSt3__117__compressed_pairINS_12basic_stringIcNS_11char_traitsIcEENS_9allocatorIcEEE5__repES5_EC1B8ue170006INS_18__default_init_tagESA_EEOT_OT0_, symObjAddr: 0x254C, symBinAddr: 0x10000362C, symSize: 0x3C }
  - { offsetInCU: 0xB189, offset: 0xB189, size: 0x8, addend: 0x0, symName: __ZNSt3__117__compressed_pairINS_12basic_stringIcNS_11char_traitsIcEENS_9allocatorIcEEE5__repES5_EC2B8ue170006INS_18__default_init_tagESA_EEOT_OT0_, symObjAddr: 0x2588, symBinAddr: 0x100003668, symSize: 0x3C }
  - { offsetInCU: 0xB1E1, offset: 0xB1E1, size: 0x8, addend: 0x0, symName: __ZNSt3__122__compressed_pair_elemINS_12basic_stringIcNS_11char_traitsIcEENS_9allocatorIcEEE5__repELi0ELb0EEC2B8ue170006ENS_18__default_init_tagE, symObjAddr: 0x25C4, symBinAddr: 0x1000036A4, symSize: 0x14 }
  - { offsetInCU: 0xB216, offset: 0xB216, size: 0x8, addend: 0x0, symName: __ZNSt3__122__compressed_pair_elemINS_9allocatorIcEELi1ELb1EEC2B8ue170006ENS_18__default_init_tagE, symObjAddr: 0x25D8, symBinAddr: 0x1000036B8, symSize: 0x2C }
  - { offsetInCU: 0xB24B, offset: 0xB24B, size: 0x8, addend: 0x0, symName: __ZNSt3__19allocatorIcEC2B8ue170006Ev, symObjAddr: 0x2604, symBinAddr: 0x1000036E4, symSize: 0x2C }
  - { offsetInCU: 0xB275, offset: 0xB275, size: 0x8, addend: 0x0, symName: __ZNSt3__116__non_trivial_ifILb1ENS_9allocatorIcEEEC2B8ue170006Ev, symObjAddr: 0x2630, symBinAddr: 0x100003710, symSize: 0x14 }
  - { offsetInCU: 0xB29F, offset: 0xB29F, size: 0x8, addend: 0x0, symName: __ZNKSt3__112basic_stringIcNS_11char_traitsIcEENS_9allocatorIcEEE13__get_pointerB8ue170006Ev, symObjAddr: 0x2658, symBinAddr: 0x100003738, symSize: 0x54 }
  - { offsetInCU: 0xB2C5, offset: 0xB2C5, size: 0x8, addend: 0x0, symName: __ZNKSt3__112basic_stringIcNS_11char_traitsIcEENS_9allocatorIcEEE9__is_longB8ue170006Ev, symObjAddr: 0x26AC, symBinAddr: 0x10000378C, symSize: 0x38 }
  - { offsetInCU: 0xB2EB, offset: 0xB2EB, size: 0x8, addend: 0x0, symName: __ZNKSt3__112basic_stringIcNS_11char_traitsIcEENS_9allocatorIcEEE18__get_long_pointerB8ue170006Ev, symObjAddr: 0x26E4, symBinAddr: 0x1000037C4, symSize: 0x28 }
  - { offsetInCU: 0xB311, offset: 0xB311, size: 0x8, addend: 0x0, symName: __ZNKSt3__112basic_stringIcNS_11char_traitsIcEENS_9allocatorIcEEE19__get_short_pointerB8ue170006Ev, symObjAddr: 0x270C, symBinAddr: 0x1000037EC, symSize: 0x28 }
  - { offsetInCU: 0xB337, offset: 0xB337, size: 0x8, addend: 0x0, symName: __ZNKSt3__117__compressed_pairINS_12basic_stringIcNS_11char_traitsIcEENS_9allocatorIcEEE5__repES5_E5firstB8ue170006Ev, symObjAddr: 0x2734, symBinAddr: 0x100003814, symSize: 0x24 }
  - { offsetInCU: 0xB35D, offset: 0xB35D, size: 0x8, addend: 0x0, symName: __ZNKSt3__122__compressed_pair_elemINS_12basic_stringIcNS_11char_traitsIcEENS_9allocatorIcEEE5__repELi0ELb0EE5__getB8ue170006Ev, symObjAddr: 0x2758, symBinAddr: 0x100003838, symSize: 0x14 }
  - { offsetInCU: 0xB383, offset: 0xB383, size: 0x8, addend: 0x0, symName: __ZNSt3__114pointer_traitsIPKcE10pointer_toB8ue170006ERS1_, symObjAddr: 0x276C, symBinAddr: 0x10000384C, symSize: 0x14 }
  - { offsetInCU: 0xB3A6, offset: 0xB3A6, size: 0x8, addend: 0x0, symName: __ZNSt3__119ostreambuf_iteratorIcNS_11char_traitsIcEEEC2B8ue170006ERNS_13basic_ostreamIcS2_EE, symObjAddr: 0x2780, symBinAddr: 0x100003860, symSize: 0x54 }
  - { offsetInCU: 0xB3DE, offset: 0xB3DE, size: 0x8, addend: 0x0, symName: __ZNKSt3__19basic_iosIcNS_11char_traitsIcEEE5rdbufB8ue170006Ev, symObjAddr: 0x27D4, symBinAddr: 0x1000038B4, symSize: 0x24 }
  - { offsetInCU: 0xB406, offset: 0xB406, size: 0x8, addend: 0x0, symName: __ZNKSt3__18ios_base5rdbufB8ue170006Ev, symObjAddr: 0x27F8, symBinAddr: 0x1000038D8, symSize: 0x18 }
  - { offsetInCU: 0xB42C, offset: 0xB42C, size: 0x8, addend: 0x0, symName: __ZNSt3__111char_traitsIcE11eq_int_typeB8ue170006Eii, symObjAddr: 0x2810, symBinAddr: 0x1000038F0, symSize: 0x28 }
  - { offsetInCU: 0xB45F, offset: 0xB45F, size: 0x8, addend: 0x0, symName: __ZNSt3__111char_traitsIcE3eofB8ue170006Ev, symObjAddr: 0x2838, symBinAddr: 0x100003918, symSize: 0x8 }
  - { offsetInCU: 0xB473, offset: 0xB473, size: 0x8, addend: 0x0, symName: __ZNKSt3__19basic_iosIcNS_11char_traitsIcEEE5widenB8ue170006Ec, symObjAddr: 0x2840, symBinAddr: 0x100003920, symSize: 0x84 }
  - { offsetInCU: 0xB4DC, offset: 0xB4DC, size: 0x8, addend: 0x0, symName: __ZNKSt3__15ctypeIcE5widenB8ue170006Ec, symObjAddr: 0x28F0, symBinAddr: 0x1000039D0, symSize: 0x38 }
  - { offsetInCU: 0xB511, offset: 0xB511, size: 0x8, addend: 0x0, symName: __ZNSt3__18ios_base8setstateB8ue170006Ej, symObjAddr: 0x2928, symBinAddr: 0x100003A08, symSize: 0x34 }
...
