---
triple:          'arm64-apple-darwin'
binary-path:     '/Users/nantaporn/Documents/Algorithm/output/a66_q1a_double_end_sequence'
relocations:
  - { offsetInCU: 0x5C, offset: 0x5C, size: 0x8, addend: 0x0, symName: __ZNSt3__1L19piecewise_constructE, symObjAddr: 0x36AF, symBinAddr: 0x100007D0F, symSize: 0x0 }
  - { offsetInCU: 0x6C7F, offset: 0x6C7F, size: 0x8, addend: 0x0, symName: __ZNSt3__13maxB8ue170006IiEERKT_S3_S3_, symObjAddr: 0x53C, symBinAddr: 0x100004A70, symSize: 0x2C }
  - { offsetInCU: 0x6CC2, offset: 0x6CC2, size: 0x8, addend: 0x0, symName: __ZNSt3__1eqB8ue170006ERKNS_14__map_iteratorINS_15__tree_iteratorINS_12__value_typeIiiEEPNS_11__tree_nodeIS3_PvEElEEEESB_, symObjAddr: 0x568, symBinAddr: 0x100004A9C, symSize: 0x30 }
  - { offsetInCU: 0x6CFF, offset: 0x6CFF, size: 0x8, addend: 0x0, symName: __ZNSt3__13minB8ue170006IiEERKT_S3_S3_, symObjAddr: 0x610, symBinAddr: 0x100004B44, symSize: 0x2C }
  - { offsetInCU: 0x6D42, offset: 0x6D42, size: 0x8, addend: 0x0, symName: __ZNSt3__122__make_exception_guardB8ue170006INS_6vectorIiNS_9allocatorIiEEE16__destroy_vectorEEENS_28__exception_guard_exceptionsIT_EES7_, symObjAddr: 0x7A4, symBinAddr: 0x100004CD8, symSize: 0x40 }
  - { offsetInCU: 0x6D77, offset: 0x6D77, size: 0x8, addend: 0x0, symName: __ZNSt3__119__allocate_at_leastB8ue170006INS_9allocatorIiEEEENS_19__allocation_resultINS_16allocator_traitsIT_E7pointerEEERS5_m, symObjAddr: 0xB90, symBinAddr: 0x1000050C4, symSize: 0x40 }
  - { offsetInCU: 0x6DBA, offset: 0x6DBA, size: 0x8, addend: 0x0, symName: __ZNSt3__13minB8ue170006ImEERKT_S3_S3_, symObjAddr: 0xCCC, symBinAddr: 0x100005200, symSize: 0x2C }
  - { offsetInCU: 0x6FFE, offset: 0x6FFE, size: 0x8, addend: 0x0, symName: __ZNSt3__13minB8ue170006ImNS_6__lessIvvEEEERKT_S5_S5_T0_, symObjAddr: 0xD64, symBinAddr: 0x100005298, symSize: 0x54 }
  - { offsetInCU: 0x70CE, offset: 0x70CE, size: 0x8, addend: 0x0, symName: __ZNSt3__120__throw_length_errorB8ue170006EPKc, symObjAddr: 0xE40, symBinAddr: 0x100005374, symSize: 0x64 }
  - { offsetInCU: 0x70F8, offset: 0x70F8, size: 0x8, addend: 0x0, symName: __ZNSt3__117__libcpp_allocateB8ue170006Emm, symObjAddr: 0xFB0, symBinAddr: 0x1000054E4, symSize: 0x28 }
  - { offsetInCU: 0x7135, offset: 0x7135, size: 0x8, addend: 0x0, symName: __ZNSt3__121__libcpp_operator_newB8ue170006IJmEEEPvDpT_, symObjAddr: 0xFD8, symBinAddr: 0x10000550C, symSize: 0x24 }
  - { offsetInCU: 0x716E, offset: 0x716E, size: 0x8, addend: 0x0, symName: __ZNSt3__112__to_addressB8ue170006IiEEPT_S2_, symObjAddr: 0x10F4, symBinAddr: 0x100005628, symSize: 0x14 }
  - { offsetInCU: 0x71A3, offset: 0x71A3, size: 0x8, addend: 0x0, symName: __ZNSt3__119__libcpp_deallocateB8ue170006EPvmm, symObjAddr: 0x15A4, symBinAddr: 0x100005AD8, symSize: 0x30 }
  - { offsetInCU: 0x71EB, offset: 0x71EB, size: 0x8, addend: 0x0, symName: __ZNSt3__127__do_deallocate_handle_sizeB8ue170006IJEEEvPvmDpT_, symObjAddr: 0x15D4, symBinAddr: 0x100005B08, symSize: 0x28 }
  - { offsetInCU: 0x7229, offset: 0x7229, size: 0x8, addend: 0x0, symName: __ZNSt3__124__libcpp_operator_deleteB8ue170006IJPvEEEvDpT_, symObjAddr: 0x15FC, symBinAddr: 0x100005B30, symSize: 0x24 }
  - { offsetInCU: 0x72C8, offset: 0x72C8, size: 0x8, addend: 0x0, symName: __ZNSt3__116forward_as_tupleB8ue170006IJRKiEEENS_5tupleIJDpOT_EEES6_, symObjAddr: 0x1E00, symBinAddr: 0x100006334, symSize: 0x2C }
  - { offsetInCU: 0x7301, offset: 0x7301, size: 0x8, addend: 0x0, symName: __ZNSt3__116forward_as_tupleB8ue170006IJEEENS_5tupleIJDpOT_EEES4_, symObjAddr: 0x1E2C, symBinAddr: 0x100006360, symSize: 0x4 }
  - { offsetInCU: 0x734E, offset: 0x734E, size: 0x8, addend: 0x0, symName: __ZNSt3__13getB8ue170006ILm0EJRKiEEERNS_13tuple_elementIXT_ENS_5tupleIJDpT0_EEEE4typeERS7_, symObjAddr: 0x2868, symBinAddr: 0x100006D9C, symSize: 0x24 }
  - { offsetInCU: 0x7391, offset: 0x7391, size: 0x8, addend: 0x0, symName: __ZNSt3__127__tree_balance_after_insertB8ue170006IPNS_16__tree_node_baseIPvEEEEvT_S5_, symObjAddr: 0x2918, symBinAddr: 0x100006E4C, symSize: 0x32C }
  - { offsetInCU: 0x740D, offset: 0x740D, size: 0x8, addend: 0x0, symName: __ZNSt3__120__tree_is_left_childB8ue170006IPNS_16__tree_node_baseIPvEEEEbT_, symObjAddr: 0x2C84, symBinAddr: 0x1000071B8, symSize: 0x2C }
  - { offsetInCU: 0x7442, offset: 0x7442, size: 0x8, addend: 0x0, symName: __ZNSt3__118__tree_left_rotateB8ue170006IPNS_16__tree_node_baseIPvEEEEvT_, symObjAddr: 0x2CB0, symBinAddr: 0x1000071E4, symSize: 0xD8 }
  - { offsetInCU: 0x7484, offset: 0x7484, size: 0x8, addend: 0x0, symName: __ZNSt3__119__tree_right_rotateB8ue170006IPNS_16__tree_node_baseIPvEEEEvT_, symObjAddr: 0x2D88, symBinAddr: 0x1000072BC, symSize: 0xCC }
  - { offsetInCU: 0x751D, offset: 0x751D, size: 0x8, addend: 0x0, symName: __ZNSt3__13maxB8ue170006IiNS_6__lessIvvEEEERKT_S5_S5_T0_, symObjAddr: 0x3194, symBinAddr: 0x1000076C8, symSize: 0x54 }
  - { offsetInCU: 0x7577, offset: 0x7577, size: 0x8, addend: 0x0, symName: __ZNSt3__1neB8ue170006ERKNS_15__tree_iteratorINS_12__value_typeIiiEEPNS_11__tree_nodeIS2_PvEElEES9_, symObjAddr: 0x33EC, symBinAddr: 0x100007920, symSize: 0x34 }
  - { offsetInCU: 0x75B4, offset: 0x75B4, size: 0x8, addend: 0x0, symName: __ZNSt3__1eqB8ue170006ERKNS_15__tree_iteratorINS_12__value_typeIiiEEPNS_11__tree_nodeIS2_PvEElEES9_, symObjAddr: 0x34D0, symBinAddr: 0x100007A04, symSize: 0x30 }
  - { offsetInCU: 0x75F1, offset: 0x75F1, size: 0x8, addend: 0x0, symName: __ZNSt3__13minB8ue170006IiNS_6__lessIvvEEEERKT_S5_S5_T0_, symObjAddr: 0x3520, symBinAddr: 0x100007A54, symSize: 0x54 }
  - { offsetInCU: 0x791A, offset: 0x791A, size: 0x8, addend: 0x0, symName: __ZSt28__throw_bad_array_new_lengthB8ue170006v, symObjAddr: 0xF7C, symBinAddr: 0x1000054B0, symSize: 0x34 }
  - { offsetInCU: 0xA309, offset: 0xA309, size: 0x8, addend: 0x0, symName: __Z7get_sumRNSt3__16vectorIiNS_9allocatorIiEEEEii, symObjAddr: 0x0, symBinAddr: 0x100004534, symSize: 0x94 }
  - { offsetInCU: 0xA351, offset: 0xA351, size: 0x8, addend: 0x0, symName: __ZNSt3__16vectorIiNS_9allocatorIiEEEixB8ue170006Em, symObjAddr: 0x94, symBinAddr: 0x1000045C8, symSize: 0x24 }
  - { offsetInCU: 0xA386, offset: 0xA386, size: 0x8, addend: 0x0, symName: _main, symObjAddr: 0xB8, symBinAddr: 0x1000045EC, symSize: 0x3A4 }
  - { offsetInCU: 0xA441, offset: 0xA441, size: 0x8, addend: 0x0, symName: __ZNSt3__16vectorIiNS_9allocatorIiEEEC1Em, symObjAddr: 0x45C, symBinAddr: 0x100004990, symSize: 0x34 }
  - { offsetInCU: 0xA47A, offset: 0xA47A, size: 0x8, addend: 0x0, symName: __ZNSt3__13mapIiiNS_4lessIiEENS_9allocatorINS_4pairIKiiEEEEEC1B8ue170006Ev, symObjAddr: 0x490, symBinAddr: 0x1000049C4, symSize: 0x2C }
  - { offsetInCU: 0xA4A2, offset: 0xA4A2, size: 0x8, addend: 0x0, symName: __ZNSt3__13mapIiiNS_4lessIiEENS_9allocatorINS_4pairIKiiEEEEEixERS5_, symObjAddr: 0x4BC, symBinAddr: 0x1000049F0, symSize: 0x80 }
  - { offsetInCU: 0xA4D7, offset: 0xA4D7, size: 0x8, addend: 0x0, symName: __ZNSt3__13mapIiiNS_4lessIiEENS_9allocatorINS_4pairIKiiEEEEE4findB8ue170006ERS5_, symObjAddr: 0x598, symBinAddr: 0x100004ACC, symSize: 0x40 }
  - { offsetInCU: 0xA50A, offset: 0xA50A, size: 0x8, addend: 0x0, symName: __ZNSt3__13mapIiiNS_4lessIiEENS_9allocatorINS_4pairIKiiEEEEE3endB8ue170006Ev, symObjAddr: 0x5D8, symBinAddr: 0x100004B0C, symSize: 0x38 }
  - { offsetInCU: 0xA52E, offset: 0xA52E, size: 0x8, addend: 0x0, symName: __ZNSt3__13mapIiiNS_4lessIiEENS_9allocatorINS_4pairIKiiEEEEED1B8ue170006Ev, symObjAddr: 0x63C, symBinAddr: 0x100004B70, symSize: 0x2C }
  - { offsetInCU: 0xA556, offset: 0xA556, size: 0x8, addend: 0x0, symName: __ZNSt3__16vectorIiNS_9allocatorIiEEED1B8ue170006Ev, symObjAddr: 0x668, symBinAddr: 0x100004B9C, symSize: 0x2C }
  - { offsetInCU: 0xA57E, offset: 0xA57E, size: 0x8, addend: 0x0, symName: __ZNSt3__16vectorIiNS_9allocatorIiEEEC2Em, symObjAddr: 0x694, symBinAddr: 0x100004BC8, symSize: 0xD4 }
  - { offsetInCU: 0xA5D6, offset: 0xA5D6, size: 0x8, addend: 0x0, symName: __ZNSt3__117__compressed_pairIPiNS_9allocatorIiEEEC1B8ue170006IDnNS_18__default_init_tagEEEOT_OT0_, symObjAddr: 0x768, symBinAddr: 0x100004C9C, symSize: 0x3C }
  - { offsetInCU: 0xA62C, offset: 0xA62C, size: 0x8, addend: 0x0, symName: __ZNSt3__16vectorIiNS_9allocatorIiEEE16__destroy_vectorC1B8ue170006ERS3_, symObjAddr: 0x7E4, symBinAddr: 0x100004D18, symSize: 0x34 }
  - { offsetInCU: 0xA663, offset: 0xA663, size: 0x8, addend: 0x0, symName: __ZNSt3__16vectorIiNS_9allocatorIiEEE11__vallocateB8ue170006Em, symObjAddr: 0x818, symBinAddr: 0x100004D4C, symSize: 0xAC }
  - { offsetInCU: 0xA6A5, offset: 0xA6A5, size: 0x8, addend: 0x0, symName: __ZNSt3__16vectorIiNS_9allocatorIiEEE18__construct_at_endEm, symObjAddr: 0x8C4, symBinAddr: 0x100004DF8, symSize: 0xC8 }
  - { offsetInCU: 0xA715, offset: 0xA715, size: 0x8, addend: 0x0, symName: __ZNSt3__128__exception_guard_exceptionsINS_6vectorIiNS_9allocatorIiEEE16__destroy_vectorEE10__completeB8ue170006Ev, symObjAddr: 0x98C, symBinAddr: 0x100004EC0, symSize: 0x1C }
  - { offsetInCU: 0xA739, offset: 0xA739, size: 0x8, addend: 0x0, symName: __ZNSt3__128__exception_guard_exceptionsINS_6vectorIiNS_9allocatorIiEEE16__destroy_vectorEED1B8ue170006Ev, symObjAddr: 0x9A8, symBinAddr: 0x100004EDC, symSize: 0x2C }
  - { offsetInCU: 0xA761, offset: 0xA761, size: 0x8, addend: 0x0, symName: __ZNSt3__117__compressed_pairIPiNS_9allocatorIiEEEC2B8ue170006IDnNS_18__default_init_tagEEEOT_OT0_, symObjAddr: 0x9D4, symBinAddr: 0x100004F08, symSize: 0x40 }
  - { offsetInCU: 0xA7B7, offset: 0xA7B7, size: 0x8, addend: 0x0, symName: __ZNSt3__122__compressed_pair_elemIPiLi0ELb0EEC2B8ue170006IDnvEEOT_, symObjAddr: 0xA14, symBinAddr: 0x100004F48, symSize: 0x1C }
  - { offsetInCU: 0xA7F7, offset: 0xA7F7, size: 0x8, addend: 0x0, symName: __ZNSt3__122__compressed_pair_elemINS_9allocatorIiEELi1ELb1EEC2B8ue170006ENS_18__default_init_tagE, symObjAddr: 0xA30, symBinAddr: 0x100004F64, symSize: 0x2C }
  - { offsetInCU: 0xA829, offset: 0xA829, size: 0x8, addend: 0x0, symName: __ZNSt3__19allocatorIiEC2B8ue170006Ev, symObjAddr: 0xA5C, symBinAddr: 0x100004F90, symSize: 0x2C }
  - { offsetInCU: 0xA851, offset: 0xA851, size: 0x8, addend: 0x0, symName: __ZNSt3__116__non_trivial_ifILb1ENS_9allocatorIiEEEC2B8ue170006Ev, symObjAddr: 0xA88, symBinAddr: 0x100004FBC, symSize: 0x14 }
  - { offsetInCU: 0xA879, offset: 0xA879, size: 0x8, addend: 0x0, symName: __ZNSt3__128__exception_guard_exceptionsINS_6vectorIiNS_9allocatorIiEEE16__destroy_vectorEEC1B8ue170006ES5_, symObjAddr: 0xA9C, symBinAddr: 0x100004FD0, symSize: 0x34 }
  - { offsetInCU: 0xA8AF, offset: 0xA8AF, size: 0x8, addend: 0x0, symName: __ZNSt3__128__exception_guard_exceptionsINS_6vectorIiNS_9allocatorIiEEE16__destroy_vectorEEC2B8ue170006ES5_, symObjAddr: 0xAD0, symBinAddr: 0x100005004, symSize: 0x24 }
  - { offsetInCU: 0xA8E5, offset: 0xA8E5, size: 0x8, addend: 0x0, symName: __ZNSt3__16vectorIiNS_9allocatorIiEEE16__destroy_vectorC2B8ue170006ERS3_, symObjAddr: 0xAF4, symBinAddr: 0x100005028, symSize: 0x20 }
  - { offsetInCU: 0xA91C, offset: 0xA91C, size: 0x8, addend: 0x0, symName: __ZNKSt3__16vectorIiNS_9allocatorIiEEE8max_sizeEv, symObjAddr: 0xB14, symBinAddr: 0x100005048, symSize: 0x60 }
  - { offsetInCU: 0xA942, offset: 0xA942, size: 0x8, addend: 0x0, symName: __ZNKSt3__16vectorIiNS_9allocatorIiEEE20__throw_length_errorB8ue170006Ev, symObjAddr: 0xB74, symBinAddr: 0x1000050A8, symSize: 0x1C }
  - { offsetInCU: 0xA966, offset: 0xA966, size: 0x8, addend: 0x0, symName: __ZNSt3__16vectorIiNS_9allocatorIiEEE7__allocB8ue170006Ev, symObjAddr: 0xBD0, symBinAddr: 0x100005104, symSize: 0x28 }
  - { offsetInCU: 0xA98A, offset: 0xA98A, size: 0x8, addend: 0x0, symName: __ZNSt3__16vectorIiNS_9allocatorIiEEE9__end_capB8ue170006Ev, symObjAddr: 0xBF8, symBinAddr: 0x10000512C, symSize: 0x28 }
  - { offsetInCU: 0xA9AE, offset: 0xA9AE, size: 0x8, addend: 0x0, symName: __ZNKSt3__16vectorIiNS_9allocatorIiEEE14__annotate_newB8ue170006Em, symObjAddr: 0xC20, symBinAddr: 0x100005154, symSize: 0xAC }
  - { offsetInCU: 0xA9EC, offset: 0xA9EC, size: 0x8, addend: 0x0, symName: __ZNSt3__116allocator_traitsINS_9allocatorIiEEE8max_sizeB8ue170006IS2_vEEmRKS2_, symObjAddr: 0xCF8, symBinAddr: 0x10000522C, symSize: 0x24 }
  - { offsetInCU: 0xAA19, offset: 0xAA19, size: 0x8, addend: 0x0, symName: __ZNKSt3__16vectorIiNS_9allocatorIiEEE7__allocB8ue170006Ev, symObjAddr: 0xD1C, symBinAddr: 0x100005250, symSize: 0x28 }
  - { offsetInCU: 0xAA3E, offset: 0xAA3E, size: 0x8, addend: 0x0, symName: __ZNSt3__114numeric_limitsIlE3maxB8ue170006Ev, symObjAddr: 0xD44, symBinAddr: 0x100005278, symSize: 0x14 }
  - { offsetInCU: 0xAA5B, offset: 0xAA5B, size: 0x8, addend: 0x0, symName: __ZNKSt3__16__lessIvvEclB8ue170006ImmEEbRKT_RKT0_, symObjAddr: 0xDB8, symBinAddr: 0x1000052EC, symSize: 0x34 }
  - { offsetInCU: 0xAAAD, offset: 0xAAAD, size: 0x8, addend: 0x0, symName: __ZNKSt3__19allocatorIiE8max_sizeB8ue170006Ev, symObjAddr: 0xDEC, symBinAddr: 0x100005320, symSize: 0x14 }
  - { offsetInCU: 0xAAD1, offset: 0xAAD1, size: 0x8, addend: 0x0, symName: __ZNKSt3__117__compressed_pairIPiNS_9allocatorIiEEE6secondB8ue170006Ev, symObjAddr: 0xE00, symBinAddr: 0x100005334, symSize: 0x24 }
  - { offsetInCU: 0xAAF5, offset: 0xAAF5, size: 0x8, addend: 0x0, symName: __ZNKSt3__122__compressed_pair_elemINS_9allocatorIiEELi1ELb1EE5__getB8ue170006Ev, symObjAddr: 0xE24, symBinAddr: 0x100005358, symSize: 0x14 }
  - { offsetInCU: 0xAB1A, offset: 0xAB1A, size: 0x8, addend: 0x0, symName: __ZNSt3__123__libcpp_numeric_limitsIlLb1EE3maxB8ue170006Ev, symObjAddr: 0xE38, symBinAddr: 0x10000536C, symSize: 0x8 }
  - { offsetInCU: 0xAB2D, offset: 0xAB2D, size: 0x8, addend: 0x0, symName: __ZNSt12length_errorC1B8ue170006EPKc, symObjAddr: 0xEA4, symBinAddr: 0x1000053D8, symSize: 0x34 }
  - { offsetInCU: 0xAB63, offset: 0xAB63, size: 0x8, addend: 0x0, symName: __ZNSt12length_errorC2B8ue170006EPKc, symObjAddr: 0xED8, symBinAddr: 0x10000540C, symSize: 0x4C }
  - { offsetInCU: 0xAB99, offset: 0xAB99, size: 0x8, addend: 0x0, symName: __ZNSt3__19allocatorIiE8allocateB8ue170006Em, symObjAddr: 0xF24, symBinAddr: 0x100005458, symSize: 0x58 }
  - { offsetInCU: 0xABCB, offset: 0xABCB, size: 0x8, addend: 0x0, symName: __ZNSt3__117__compressed_pairIPiNS_9allocatorIiEEE6secondB8ue170006Ev, symObjAddr: 0xFFC, symBinAddr: 0x100005530, symSize: 0x24 }
  - { offsetInCU: 0xABEF, offset: 0xABEF, size: 0x8, addend: 0x0, symName: __ZNSt3__122__compressed_pair_elemINS_9allocatorIiEELi1ELb1EE5__getB8ue170006Ev, symObjAddr: 0x1020, symBinAddr: 0x100005554, symSize: 0x14 }
  - { offsetInCU: 0xAC13, offset: 0xAC13, size: 0x8, addend: 0x0, symName: __ZNSt3__117__compressed_pairIPiNS_9allocatorIiEEE5firstB8ue170006Ev, symObjAddr: 0x1034, symBinAddr: 0x100005568, symSize: 0x24 }
  - { offsetInCU: 0xAC37, offset: 0xAC37, size: 0x8, addend: 0x0, symName: __ZNSt3__122__compressed_pair_elemIPiLi0ELb0EE5__getB8ue170006Ev, symObjAddr: 0x1058, symBinAddr: 0x10000558C, symSize: 0x14 }
  - { offsetInCU: 0xAC5B, offset: 0xAC5B, size: 0x8, addend: 0x0, symName: __ZNKSt3__16vectorIiNS_9allocatorIiEEE31__annotate_contiguous_containerB8ue170006EPKvS5_S5_S5_, symObjAddr: 0x106C, symBinAddr: 0x1000055A0, symSize: 0x20 }
  - { offsetInCU: 0xACAF, offset: 0xACAF, size: 0x8, addend: 0x0, symName: __ZNKSt3__16vectorIiNS_9allocatorIiEEE4dataB8ue170006Ev, symObjAddr: 0x108C, symBinAddr: 0x1000055C0, symSize: 0x28 }
  - { offsetInCU: 0xACD3, offset: 0xACD3, size: 0x8, addend: 0x0, symName: __ZNKSt3__16vectorIiNS_9allocatorIiEEE8capacityB8ue170006Ev, symObjAddr: 0x10B4, symBinAddr: 0x1000055E8, symSize: 0x40 }
  - { offsetInCU: 0xACF7, offset: 0xACF7, size: 0x8, addend: 0x0, symName: __ZNKSt3__16vectorIiNS_9allocatorIiEEE9__end_capB8ue170006Ev, symObjAddr: 0x1108, symBinAddr: 0x10000563C, symSize: 0x28 }
  - { offsetInCU: 0xAD1B, offset: 0xAD1B, size: 0x8, addend: 0x0, symName: __ZNKSt3__117__compressed_pairIPiNS_9allocatorIiEEE5firstB8ue170006Ev, symObjAddr: 0x1130, symBinAddr: 0x100005664, symSize: 0x24 }
  - { offsetInCU: 0xAD3F, offset: 0xAD3F, size: 0x8, addend: 0x0, symName: __ZNKSt3__122__compressed_pair_elemIPiLi0ELb0EE5__getB8ue170006Ev, symObjAddr: 0x1154, symBinAddr: 0x100005688, symSize: 0x14 }
  - { offsetInCU: 0xAD7C, offset: 0xAD7C, size: 0x8, addend: 0x0, symName: __ZNSt3__16vectorIiNS_9allocatorIiEEE21_ConstructTransactionC1B8ue170006ERS3_m, symObjAddr: 0x1168, symBinAddr: 0x10000569C, symSize: 0x3C }
  - { offsetInCU: 0xADC3, offset: 0xADC3, size: 0x8, addend: 0x0, symName: __ZNSt3__116allocator_traitsINS_9allocatorIiEEE9constructB8ue170006IiJEvEEvRS2_PT_DpOT0_, symObjAddr: 0x11A4, symBinAddr: 0x1000056D8, symSize: 0x2C }
  - { offsetInCU: 0xAE04, offset: 0xAE04, size: 0x8, addend: 0x0, symName: __ZNSt3__16vectorIiNS_9allocatorIiEEE21_ConstructTransactionD1B8ue170006Ev, symObjAddr: 0x11D0, symBinAddr: 0x100005704, symSize: 0x2C }
  - { offsetInCU: 0xAE2C, offset: 0xAE2C, size: 0x8, addend: 0x0, symName: __ZNSt3__16vectorIiNS_9allocatorIiEEE21_ConstructTransactionC2B8ue170006ERS3_m, symObjAddr: 0x11FC, symBinAddr: 0x100005730, symSize: 0x44 }
  - { offsetInCU: 0xAE72, offset: 0xAE72, size: 0x8, addend: 0x0, symName: __ZNSt3__19allocatorIiE9constructB8ue170006IiJEEEvPT_DpOT0_, symObjAddr: 0x1240, symBinAddr: 0x100005774, symSize: 0x1C }
  - { offsetInCU: 0xAEB2, offset: 0xAEB2, size: 0x8, addend: 0x0, symName: __ZNSt3__16vectorIiNS_9allocatorIiEEE21_ConstructTransactionD2B8ue170006Ev, symObjAddr: 0x125C, symBinAddr: 0x100005790, symSize: 0x20 }
  - { offsetInCU: 0xAEDA, offset: 0xAEDA, size: 0x8, addend: 0x0, symName: __ZNSt3__128__exception_guard_exceptionsINS_6vectorIiNS_9allocatorIiEEE16__destroy_vectorEED2B8ue170006Ev, symObjAddr: 0x127C, symBinAddr: 0x1000057B0, symSize: 0x50 }
  - { offsetInCU: 0xAF02, offset: 0xAF02, size: 0x8, addend: 0x0, symName: __ZNSt3__16vectorIiNS_9allocatorIiEEE16__destroy_vectorclB8ue170006Ev, symObjAddr: 0x12CC, symBinAddr: 0x100005800, symSize: 0x90 }
  - { offsetInCU: 0xAF26, offset: 0xAF26, size: 0x8, addend: 0x0, symName: __ZNSt3__16vectorIiNS_9allocatorIiEEE7__clearB8ue170006Ev, symObjAddr: 0x135C, symBinAddr: 0x100005890, symSize: 0x28 }
  - { offsetInCU: 0xAF4A, offset: 0xAF4A, size: 0x8, addend: 0x0, symName: __ZNKSt3__16vectorIiNS_9allocatorIiEEE17__annotate_deleteB8ue170006Ev, symObjAddr: 0x1384, symBinAddr: 0x1000058B8, symSize: 0xB8 }
  - { offsetInCU: 0xAF6F, offset: 0xAF6F, size: 0x8, addend: 0x0, symName: __ZNSt3__116allocator_traitsINS_9allocatorIiEEE10deallocateB8ue170006ERS2_Pim, symObjAddr: 0x143C, symBinAddr: 0x100005970, symSize: 0x34 }
  - { offsetInCU: 0xAFB0, offset: 0xAFB0, size: 0x8, addend: 0x0, symName: __ZNSt3__16vectorIiNS_9allocatorIiEEE22__base_destruct_at_endB8ue170006EPi, symObjAddr: 0x1470, symBinAddr: 0x1000059A4, symSize: 0x8C }
  - { offsetInCU: 0xAFF3, offset: 0xAFF3, size: 0x8, addend: 0x0, symName: __ZNSt3__116allocator_traitsINS_9allocatorIiEEE7destroyB8ue170006IivEEvRS2_PT_, symObjAddr: 0x14FC, symBinAddr: 0x100005A30, symSize: 0x2C }
  - { offsetInCU: 0xB02F, offset: 0xB02F, size: 0x8, addend: 0x0, symName: __ZNSt3__19allocatorIiE7destroyB8ue170006EPi, symObjAddr: 0x1528, symBinAddr: 0x100005A5C, symSize: 0x14 }
  - { offsetInCU: 0xB061, offset: 0xB061, size: 0x8, addend: 0x0, symName: __ZNKSt3__16vectorIiNS_9allocatorIiEEE4sizeB8ue170006Ev, symObjAddr: 0x153C, symBinAddr: 0x100005A70, symSize: 0x28 }
  - { offsetInCU: 0xB085, offset: 0xB085, size: 0x8, addend: 0x0, symName: __ZNSt3__19allocatorIiE10deallocateB8ue170006EPim, symObjAddr: 0x1564, symBinAddr: 0x100005A98, symSize: 0x40 }
  - { offsetInCU: 0xB0C5, offset: 0xB0C5, size: 0x8, addend: 0x0, symName: __ZNSt3__16vectorIiNS_9allocatorIiEEED2B8ue170006Ev, symObjAddr: 0x1620, symBinAddr: 0x100005B54, symSize: 0x40 }
  - { offsetInCU: 0xB0ED, offset: 0xB0ED, size: 0x8, addend: 0x0, symName: __ZNSt3__13mapIiiNS_4lessIiEENS_9allocatorINS_4pairIKiiEEEEEC2B8ue170006Ev, symObjAddr: 0x1660, symBinAddr: 0x100005B94, symSize: 0x40 }
  - { offsetInCU: 0xB115, offset: 0xB115, size: 0x8, addend: 0x0, symName: __ZNSt3__119__map_value_compareIiNS_12__value_typeIiiEENS_4lessIiEELb1EEC1B8ue170006ES4_, symObjAddr: 0x16A0, symBinAddr: 0x100005BD4, symSize: 0x2C }
  - { offsetInCU: 0xB14C, offset: 0xB14C, size: 0x8, addend: 0x0, symName: __ZNSt3__16__treeINS_12__value_typeIiiEENS_19__map_value_compareIiS2_NS_4lessIiEELb1EEENS_9allocatorIS2_EEEC1ERKS6_, symObjAddr: 0x16CC, symBinAddr: 0x100005C00, symSize: 0x34 }
  - { offsetInCU: 0xB185, offset: 0xB185, size: 0x8, addend: 0x0, symName: __ZNSt3__119__map_value_compareIiNS_12__value_typeIiiEENS_4lessIiEELb1EEC2B8ue170006ES4_, symObjAddr: 0x1700, symBinAddr: 0x100005C34, symSize: 0x14 }
  - { offsetInCU: 0xB1BC, offset: 0xB1BC, size: 0x8, addend: 0x0, symName: __ZNSt3__16__treeINS_12__value_typeIiiEENS_19__map_value_compareIiS2_NS_4lessIiEELb1EEENS_9allocatorIS2_EEEC2ERKS6_, symObjAddr: 0x1714, symBinAddr: 0x100005C48, symSize: 0x7C }
  - { offsetInCU: 0xB1F5, offset: 0xB1F5, size: 0x8, addend: 0x0, symName: __ZNSt3__117__compressed_pairINS_15__tree_end_nodeIPNS_16__tree_node_baseIPvEEEENS_9allocatorINS_11__tree_nodeINS_12__value_typeIiiEES3_EEEEEC1B8ue170006ILb1EvEEv, symObjAddr: 0x1790, symBinAddr: 0x100005CC4, symSize: 0x2C }
  - { offsetInCU: 0xB22D, offset: 0xB22D, size: 0x8, addend: 0x0, symName: __ZNSt3__117__compressed_pairImNS_19__map_value_compareIiNS_12__value_typeIiiEENS_4lessIiEELb1EEEEC1B8ue170006IiRKS6_EEOT_OT0_, symObjAddr: 0x17BC, symBinAddr: 0x100005CF0, symSize: 0x3C }
  - { offsetInCU: 0xB283, offset: 0xB283, size: 0x8, addend: 0x0, symName: __ZNSt3__16__treeINS_12__value_typeIiiEENS_19__map_value_compareIiS2_NS_4lessIiEELb1EEENS_9allocatorIS2_EEE10__end_nodeB8ue170006Ev, symObjAddr: 0x17F8, symBinAddr: 0x100005D2C, symSize: 0x2C }
  - { offsetInCU: 0xB2A7, offset: 0xB2A7, size: 0x8, addend: 0x0, symName: __ZNSt3__16__treeINS_12__value_typeIiiEENS_19__map_value_compareIiS2_NS_4lessIiEELb1EEENS_9allocatorIS2_EEE12__begin_nodeB8ue170006Ev, symObjAddr: 0x1824, symBinAddr: 0x100005D58, symSize: 0x14 }
  - { offsetInCU: 0xB2CB, offset: 0xB2CB, size: 0x8, addend: 0x0, symName: __ZNSt3__117__compressed_pairINS_15__tree_end_nodeIPNS_16__tree_node_baseIPvEEEENS_9allocatorINS_11__tree_nodeINS_12__value_typeIiiEES3_EEEEEC2B8ue170006ILb1EvEEv, symObjAddr: 0x1838, symBinAddr: 0x100005D6C, symSize: 0x34 }
  - { offsetInCU: 0xB2FE, offset: 0xB2FE, size: 0x8, addend: 0x0, symName: __ZNSt3__122__compressed_pair_elemINS_15__tree_end_nodeIPNS_16__tree_node_baseIPvEEEELi0ELb0EEC2B8ue170006ENS_16__value_init_tagE, symObjAddr: 0x186C, symBinAddr: 0x100005DA0, symSize: 0x2C }
  - { offsetInCU: 0xB330, offset: 0xB330, size: 0x8, addend: 0x0, symName: __ZNSt3__122__compressed_pair_elemINS_9allocatorINS_11__tree_nodeINS_12__value_typeIiiEEPvEEEELi1ELb1EEC2B8ue170006ENS_16__value_init_tagE, symObjAddr: 0x1898, symBinAddr: 0x100005DCC, symSize: 0x2C }
  - { offsetInCU: 0xB362, offset: 0xB362, size: 0x8, addend: 0x0, symName: __ZNSt3__115__tree_end_nodeIPNS_16__tree_node_baseIPvEEEC1B8ue170006Ev, symObjAddr: 0x18C4, symBinAddr: 0x100005DF8, symSize: 0x2C }
  - { offsetInCU: 0xB38A, offset: 0xB38A, size: 0x8, addend: 0x0, symName: __ZNSt3__115__tree_end_nodeIPNS_16__tree_node_baseIPvEEEC2B8ue170006Ev, symObjAddr: 0x18F0, symBinAddr: 0x100005E24, symSize: 0x18 }
  - { offsetInCU: 0xB3B2, offset: 0xB3B2, size: 0x8, addend: 0x0, symName: __ZNSt3__19allocatorINS_11__tree_nodeINS_12__value_typeIiiEEPvEEEC2B8ue170006Ev, symObjAddr: 0x1908, symBinAddr: 0x100005E3C, symSize: 0x2C }
  - { offsetInCU: 0xB3DA, offset: 0xB3DA, size: 0x8, addend: 0x0, symName: __ZNSt3__116__non_trivial_ifILb1ENS_9allocatorINS_11__tree_nodeINS_12__value_typeIiiEEPvEEEEEC2B8ue170006Ev, symObjAddr: 0x1934, symBinAddr: 0x100005E68, symSize: 0x14 }
  - { offsetInCU: 0xB402, offset: 0xB402, size: 0x8, addend: 0x0, symName: __ZNSt3__117__compressed_pairImNS_19__map_value_compareIiNS_12__value_typeIiiEENS_4lessIiEELb1EEEEC2B8ue170006IiRKS6_EEOT_OT0_, symObjAddr: 0x1948, symBinAddr: 0x100005E7C, symSize: 0x44 }
  - { offsetInCU: 0xB458, offset: 0xB458, size: 0x8, addend: 0x0, symName: __ZNSt3__122__compressed_pair_elemImLi0ELb0EEC2B8ue170006IivEEOT_, symObjAddr: 0x198C, symBinAddr: 0x100005EC0, symSize: 0x24 }
  - { offsetInCU: 0xB498, offset: 0xB498, size: 0x8, addend: 0x0, symName: __ZNSt3__122__compressed_pair_elemINS_19__map_value_compareIiNS_12__value_typeIiiEENS_4lessIiEELb1EEELi1ELb1EEC2B8ue170006IRKS6_vEEOT_, symObjAddr: 0x19B0, symBinAddr: 0x100005EE4, symSize: 0x18 }
  - { offsetInCU: 0xB4D9, offset: 0xB4D9, size: 0x8, addend: 0x0, symName: __ZNSt3__114pointer_traitsIPNS_15__tree_end_nodeIPNS_16__tree_node_baseIPvEEEEE10pointer_toB8ue170006ERS6_, symObjAddr: 0x19C8, symBinAddr: 0x100005EFC, symSize: 0x14 }
  - { offsetInCU: 0xB4FB, offset: 0xB4FB, size: 0x8, addend: 0x0, symName: __ZNSt3__117__compressed_pairINS_15__tree_end_nodeIPNS_16__tree_node_baseIPvEEEENS_9allocatorINS_11__tree_nodeINS_12__value_typeIiiEES3_EEEEE5firstB8ue170006Ev, symObjAddr: 0x19DC, symBinAddr: 0x100005F10, symSize: 0x24 }
  - { offsetInCU: 0xB51F, offset: 0xB51F, size: 0x8, addend: 0x0, symName: __ZNSt3__122__compressed_pair_elemINS_15__tree_end_nodeIPNS_16__tree_node_baseIPvEEEELi0ELb0EE5__getB8ue170006Ev, symObjAddr: 0x1A00, symBinAddr: 0x100005F34, symSize: 0x14 }
  - { offsetInCU: 0xB543, offset: 0xB543, size: 0x8, addend: 0x0, symName: __ZNSt3__13mapIiiNS_4lessIiEENS_9allocatorINS_4pairIKiiEEEEED2B8ue170006Ev, symObjAddr: 0x1A14, symBinAddr: 0x100005F48, symSize: 0x2C }
  - { offsetInCU: 0xB56B, offset: 0xB56B, size: 0x8, addend: 0x0, symName: __ZNSt3__16__treeINS_12__value_typeIiiEENS_19__map_value_compareIiS2_NS_4lessIiEELb1EEENS_9allocatorIS2_EEED1Ev, symObjAddr: 0x1A40, symBinAddr: 0x100005F74, symSize: 0x2C }
  - { offsetInCU: 0xB595, offset: 0xB595, size: 0x8, addend: 0x0, symName: __ZNSt3__16__treeINS_12__value_typeIiiEENS_19__map_value_compareIiS2_NS_4lessIiEELb1EEENS_9allocatorIS2_EEED2Ev, symObjAddr: 0x1A6C, symBinAddr: 0x100005FA0, symSize: 0x38 }
  - { offsetInCU: 0xB5BF, offset: 0xB5BF, size: 0x8, addend: 0x0, symName: __ZNSt3__16__treeINS_12__value_typeIiiEENS_19__map_value_compareIiS2_NS_4lessIiEELb1EEENS_9allocatorIS2_EEE7destroyEPNS_11__tree_nodeIS2_PvEE, symObjAddr: 0x1AA4, symBinAddr: 0x100005FD8, symSize: 0xAC }
  - { offsetInCU: 0xB609, offset: 0xB609, size: 0x8, addend: 0x0, symName: __ZNKSt3__16__treeINS_12__value_typeIiiEENS_19__map_value_compareIiS2_NS_4lessIiEELb1EEENS_9allocatorIS2_EEE6__rootB8ue170006Ev, symObjAddr: 0x1B50, symBinAddr: 0x100006084, symSize: 0x28 }
  - { offsetInCU: 0xB62D, offset: 0xB62D, size: 0x8, addend: 0x0, symName: __ZNSt3__16__treeINS_12__value_typeIiiEENS_19__map_value_compareIiS2_NS_4lessIiEELb1EEENS_9allocatorIS2_EEE12__node_allocB8ue170006Ev, symObjAddr: 0x1B78, symBinAddr: 0x1000060AC, symSize: 0x28 }
  - { offsetInCU: 0xB652, offset: 0xB652, size: 0x8, addend: 0x0, symName: __ZNSt3__116allocator_traitsINS_9allocatorINS_11__tree_nodeINS_12__value_typeIiiEEPvEEEEE7destroyB8ue170006INS_4pairIKiiEEvvEEvRS7_PT_, symObjAddr: 0x1BA0, symBinAddr: 0x1000060D4, symSize: 0x14 }
  - { offsetInCU: 0xB68D, offset: 0xB68D, size: 0x8, addend: 0x0, symName: __ZNSt3__122__tree_key_value_typesINS_12__value_typeIiiEEE9__get_ptrB8ue170006ERS2_, symObjAddr: 0x1BB4, symBinAddr: 0x1000060E8, symSize: 0x24 }
  - { offsetInCU: 0xB6B1, offset: 0xB6B1, size: 0x8, addend: 0x0, symName: __ZNSt3__116allocator_traitsINS_9allocatorINS_11__tree_nodeINS_12__value_typeIiiEEPvEEEEE10deallocateB8ue170006ERS7_PS6_m, symObjAddr: 0x1BD8, symBinAddr: 0x10000610C, symSize: 0x34 }
  - { offsetInCU: 0xB6F2, offset: 0xB6F2, size: 0x8, addend: 0x0, symName: __ZNSt3__117__compressed_pairINS_15__tree_end_nodeIPNS_16__tree_node_baseIPvEEEENS_9allocatorINS_11__tree_nodeINS_12__value_typeIiiEES3_EEEEE6secondB8ue170006Ev, symObjAddr: 0x1C0C, symBinAddr: 0x100006140, symSize: 0x24 }
  - { offsetInCU: 0xB716, offset: 0xB716, size: 0x8, addend: 0x0, symName: __ZNSt3__122__compressed_pair_elemINS_9allocatorINS_11__tree_nodeINS_12__value_typeIiiEEPvEEEELi1ELb1EE5__getB8ue170006Ev, symObjAddr: 0x1C30, symBinAddr: 0x100006164, symSize: 0x14 }
  - { offsetInCU: 0xB73A, offset: 0xB73A, size: 0x8, addend: 0x0, symName: __ZNSt3__112__value_typeIiiE11__get_valueB8ue170006Ev, symObjAddr: 0x1C44, symBinAddr: 0x100006178, symSize: 0x14 }
  - { offsetInCU: 0xB75E, offset: 0xB75E, size: 0x8, addend: 0x0, symName: __ZNSt3__19allocatorINS_11__tree_nodeINS_12__value_typeIiiEEPvEEE10deallocateB8ue170006EPS5_m, symObjAddr: 0x1C58, symBinAddr: 0x10000618C, symSize: 0x44 }
  - { offsetInCU: 0xB79E, offset: 0xB79E, size: 0x8, addend: 0x0, symName: __ZNKSt3__16__treeINS_12__value_typeIiiEENS_19__map_value_compareIiS2_NS_4lessIiEELb1EEENS_9allocatorIS2_EEE10__end_nodeB8ue170006Ev, symObjAddr: 0x1C9C, symBinAddr: 0x1000061D0, symSize: 0x2C }
  - { offsetInCU: 0xB7C2, offset: 0xB7C2, size: 0x8, addend: 0x0, symName: __ZNKSt3__117__compressed_pairINS_15__tree_end_nodeIPNS_16__tree_node_baseIPvEEEENS_9allocatorINS_11__tree_nodeINS_12__value_typeIiiEES3_EEEEE5firstB8ue170006Ev, symObjAddr: 0x1CC8, symBinAddr: 0x1000061FC, symSize: 0x24 }
  - { offsetInCU: 0xB7E6, offset: 0xB7E6, size: 0x8, addend: 0x0, symName: __ZNKSt3__122__compressed_pair_elemINS_15__tree_end_nodeIPNS_16__tree_node_baseIPvEEEELi0ELb0EE5__getB8ue170006Ev, symObjAddr: 0x1CEC, symBinAddr: 0x100006220, symSize: 0x14 }
  - { offsetInCU: 0xB81E, offset: 0xB81E, size: 0x8, addend: 0x0, symName: __ZNSt3__16__treeINS_12__value_typeIiiEENS_19__map_value_compareIiS2_NS_4lessIiEELb1EEENS_9allocatorIS2_EEE25__emplace_unique_key_argsIiJRKNS_21piecewise_construct_tENS_5tupleIJRKiEEENSE_IJEEEEEENS_4pairINS_15__tree_iteratorIS2_PNS_11__tree_nodeIS2_PvEElEEbEERKT_DpOT0_, symObjAddr: 0x1D00, symBinAddr: 0x100006234, symSize: 0x100 }
  - { offsetInCU: 0xB8F2, offset: 0xB8F2, size: 0x8, addend: 0x0, symName: __ZNKSt3__115__tree_iteratorINS_12__value_typeIiiEEPNS_11__tree_nodeIS2_PvEElEptB8ue170006Ev, symObjAddr: 0x1E30, symBinAddr: 0x100006364, symSize: 0x2C }
  - { offsetInCU: 0xB916, offset: 0xB916, size: 0x8, addend: 0x0, symName: __ZNSt3__16__treeINS_12__value_typeIiiEENS_19__map_value_compareIiS2_NS_4lessIiEELb1EEENS_9allocatorIS2_EEE12__find_equalIiEERPNS_16__tree_node_baseIPvEERPNS_15__tree_end_nodeISE_EERKT_, symObjAddr: 0x1E5C, symBinAddr: 0x100006390, symSize: 0x184 }
  - { offsetInCU: 0xB981, offset: 0xB981, size: 0x8, addend: 0x0, symName: __ZNSt3__16__treeINS_12__value_typeIiiEENS_19__map_value_compareIiS2_NS_4lessIiEELb1EEENS_9allocatorIS2_EEE16__construct_nodeIJRKNS_21piecewise_construct_tENS_5tupleIJRKiEEENSE_IJEEEEEENS_10unique_ptrINS_11__tree_nodeIS2_PvEENS_22__tree_node_destructorINS7_ISM_EEEEEEDpOT_, symObjAddr: 0x1FE0, symBinAddr: 0x100006514, symSize: 0x120 }
  - { offsetInCU: 0xBA08, offset: 0xBA08, size: 0x8, addend: 0x0, symName: __ZNSt3__16__treeINS_12__value_typeIiiEENS_19__map_value_compareIiS2_NS_4lessIiEELb1EEENS_9allocatorIS2_EEE16__insert_node_atEPNS_15__tree_end_nodeIPNS_16__tree_node_baseIPvEEEERSE_SE_, symObjAddr: 0x2100, symBinAddr: 0x100006634, symSize: 0xCC }
  - { offsetInCU: 0xBA5B, offset: 0xBA5B, size: 0x8, addend: 0x0, symName: __ZNKSt3__110unique_ptrINS_11__tree_nodeINS_12__value_typeIiiEEPvEENS_22__tree_node_destructorINS_9allocatorIS5_EEEEE3getB8ue170006Ev, symObjAddr: 0x21CC, symBinAddr: 0x100006700, symSize: 0x28 }
  - { offsetInCU: 0xBA7F, offset: 0xBA7F, size: 0x8, addend: 0x0, symName: __ZNSt3__110unique_ptrINS_11__tree_nodeINS_12__value_typeIiiEEPvEENS_22__tree_node_destructorINS_9allocatorIS5_EEEEE7releaseB8ue170006Ev, symObjAddr: 0x21F4, symBinAddr: 0x100006728, symSize: 0x44 }
  - { offsetInCU: 0xBAB2, offset: 0xBAB2, size: 0x8, addend: 0x0, symName: __ZNSt3__110unique_ptrINS_11__tree_nodeINS_12__value_typeIiiEEPvEENS_22__tree_node_destructorINS_9allocatorIS5_EEEEED1B8ue170006Ev, symObjAddr: 0x2238, symBinAddr: 0x10000676C, symSize: 0x2C }
  - { offsetInCU: 0xBADA, offset: 0xBADA, size: 0x8, addend: 0x0, symName: __ZNSt3__115__tree_iteratorINS_12__value_typeIiiEEPNS_11__tree_nodeIS2_PvEElEC1B8ue170006ES6_, symObjAddr: 0x2264, symBinAddr: 0x100006798, symSize: 0x34 }
  - { offsetInCU: 0xBB1B, offset: 0xBB1B, size: 0x8, addend: 0x0, symName: __ZNSt3__14pairINS_15__tree_iteratorINS_12__value_typeIiiEEPNS_11__tree_nodeIS3_PvEElEEbEC1B8ue170006IS8_RbLS5_0EEEOT_OT0_, symObjAddr: 0x2298, symBinAddr: 0x1000067CC, symSize: 0x3C }
  - { offsetInCU: 0xBB77, offset: 0xBB77, size: 0x8, addend: 0x0, symName: __ZNKSt3__16__treeINS_12__value_typeIiiEENS_19__map_value_compareIiS2_NS_4lessIiEELb1EEENS_9allocatorIS2_EEE10__root_ptrB8ue170006Ev, symObjAddr: 0x22D4, symBinAddr: 0x100006808, symSize: 0x24 }
  - { offsetInCU: 0xBB9B, offset: 0xBB9B, size: 0x8, addend: 0x0, symName: __ZNSt3__16__treeINS_12__value_typeIiiEENS_19__map_value_compareIiS2_NS_4lessIiEELb1EEENS_9allocatorIS2_EEE10value_compB8ue170006Ev, symObjAddr: 0x22F8, symBinAddr: 0x10000682C, symSize: 0x28 }
  - { offsetInCU: 0xBBBF, offset: 0xBBBF, size: 0x8, addend: 0x0, symName: __ZNKSt3__119__map_value_compareIiNS_12__value_typeIiiEENS_4lessIiEELb1EEclB8ue170006ERKiRKS2_, symObjAddr: 0x2320, symBinAddr: 0x100006854, symSize: 0x50 }
  - { offsetInCU: 0xBC01, offset: 0xBC01, size: 0x8, addend: 0x0, symName: __ZNKSt3__119__map_value_compareIiNS_12__value_typeIiiEENS_4lessIiEELb1EEclB8ue170006ERKS2_RKi, symObjAddr: 0x2370, symBinAddr: 0x1000068A4, symSize: 0x48 }
  - { offsetInCU: 0xBC43, offset: 0xBC43, size: 0x8, addend: 0x0, symName: __ZNSt3__117__compressed_pairImNS_19__map_value_compareIiNS_12__value_typeIiiEENS_4lessIiEELb1EEEE6secondB8ue170006Ev, symObjAddr: 0x23B8, symBinAddr: 0x1000068EC, symSize: 0x24 }
  - { offsetInCU: 0xBC67, offset: 0xBC67, size: 0x8, addend: 0x0, symName: __ZNSt3__122__compressed_pair_elemINS_19__map_value_compareIiNS_12__value_typeIiiEENS_4lessIiEELb1EEELi1ELb1EE5__getB8ue170006Ev, symObjAddr: 0x23DC, symBinAddr: 0x100006910, symSize: 0x14 }
  - { offsetInCU: 0xBC8B, offset: 0xBC8B, size: 0x8, addend: 0x0, symName: __ZNKSt3__14lessIiEclB8ue170006ERKiS3_, symObjAddr: 0x23F0, symBinAddr: 0x100006924, symSize: 0x34 }
  - { offsetInCU: 0xBCCD, offset: 0xBCCD, size: 0x8, addend: 0x0, symName: __ZNKSt3__112__value_typeIiiE11__get_valueB8ue170006Ev, symObjAddr: 0x2424, symBinAddr: 0x100006958, symSize: 0x14 }
  - { offsetInCU: 0xBCF2, offset: 0xBCF2, size: 0x8, addend: 0x0, symName: __ZNSt3__116allocator_traitsINS_9allocatorINS_11__tree_nodeINS_12__value_typeIiiEEPvEEEEE8allocateB8ue170006ERS7_m, symObjAddr: 0x2438, symBinAddr: 0x10000696C, symSize: 0x2C }
  - { offsetInCU: 0xBD24, offset: 0xBD24, size: 0x8, addend: 0x0, symName: __ZNSt3__122__tree_node_destructorINS_9allocatorINS_11__tree_nodeINS_12__value_typeIiiEEPvEEEEEC1B8ue170006ERS7_b, symObjAddr: 0x2464, symBinAddr: 0x100006998, symSize: 0x48 }
  - { offsetInCU: 0xBD6F, offset: 0xBD6F, size: 0x8, addend: 0x0, symName: __ZNSt3__110unique_ptrINS_11__tree_nodeINS_12__value_typeIiiEEPvEENS_22__tree_node_destructorINS_9allocatorIS5_EEEEEC1B8ue170006ILb1EvEEPS5_NS_16__dependent_typeINS_27__unique_ptr_deleter_sfinaeIS9_EEXT_EE20__good_rval_ref_typeE, symObjAddr: 0x24AC, symBinAddr: 0x1000069E0, symSize: 0x3C }
  - { offsetInCU: 0xBDBF, offset: 0xBDBF, size: 0x8, addend: 0x0, symName: __ZNSt3__116allocator_traitsINS_9allocatorINS_11__tree_nodeINS_12__value_typeIiiEEPvEEEEE9constructB8ue170006INS_4pairIKiiEEJRKNS_21piecewise_construct_tENS_5tupleIJRSB_EEENSG_IJEEEEvEEvRS7_PT_DpOT0_, symObjAddr: 0x24E8, symBinAddr: 0x100006A1C, symSize: 0x44 }
  - { offsetInCU: 0xBE3D, offset: 0xBE3D, size: 0x8, addend: 0x0, symName: __ZNKSt3__110unique_ptrINS_11__tree_nodeINS_12__value_typeIiiEEPvEENS_22__tree_node_destructorINS_9allocatorIS5_EEEEEptB8ue170006Ev, symObjAddr: 0x252C, symBinAddr: 0x100006A60, symSize: 0x28 }
  - { offsetInCU: 0xBE61, offset: 0xBE61, size: 0x8, addend: 0x0, symName: __ZNSt3__110unique_ptrINS_11__tree_nodeINS_12__value_typeIiiEEPvEENS_22__tree_node_destructorINS_9allocatorIS5_EEEEE11get_deleterB8ue170006Ev, symObjAddr: 0x2554, symBinAddr: 0x100006A88, symSize: 0x24 }
  - { offsetInCU: 0xBE85, offset: 0xBE85, size: 0x8, addend: 0x0, symName: __ZNSt3__19allocatorINS_11__tree_nodeINS_12__value_typeIiiEEPvEEE8allocateB8ue170006Em, symObjAddr: 0x2578, symBinAddr: 0x100006AAC, symSize: 0x5C }
  - { offsetInCU: 0xBEC2, offset: 0xBEC2, size: 0x8, addend: 0x0, symName: __ZNSt3__116allocator_traitsINS_9allocatorINS_11__tree_nodeINS_12__value_typeIiiEEPvEEEEE8max_sizeB8ue170006IS7_vEEmRKS7_, symObjAddr: 0x25D4, symBinAddr: 0x100006B08, symSize: 0x24 }
  - { offsetInCU: 0xBEEF, offset: 0xBEEF, size: 0x8, addend: 0x0, symName: __ZNKSt3__19allocatorINS_11__tree_nodeINS_12__value_typeIiiEEPvEEE8max_sizeB8ue170006Ev, symObjAddr: 0x25F8, symBinAddr: 0x100006B2C, symSize: 0x18 }
  - { offsetInCU: 0xBF13, offset: 0xBF13, size: 0x8, addend: 0x0, symName: __ZNSt3__122__tree_node_destructorINS_9allocatorINS_11__tree_nodeINS_12__value_typeIiiEEPvEEEEEC2B8ue170006ERS7_b, symObjAddr: 0x2610, symBinAddr: 0x100006B44, symSize: 0x38 }
  - { offsetInCU: 0xBF59, offset: 0xBF59, size: 0x8, addend: 0x0, symName: __ZNSt3__110unique_ptrINS_11__tree_nodeINS_12__value_typeIiiEEPvEENS_22__tree_node_destructorINS_9allocatorIS5_EEEEEC2B8ue170006ILb1EvEEPS5_NS_16__dependent_typeINS_27__unique_ptr_deleter_sfinaeIS9_EEXT_EE20__good_rval_ref_typeE, symObjAddr: 0x2648, symBinAddr: 0x100006B7C, symSize: 0x48 }
  - { offsetInCU: 0xBFA8, offset: 0xBFA8, size: 0x8, addend: 0x0, symName: __ZNSt3__117__compressed_pairIPNS_11__tree_nodeINS_12__value_typeIiiEEPvEENS_22__tree_node_destructorINS_9allocatorIS5_EEEEEC1B8ue170006IRS6_SA_EEOT_OT0_, symObjAddr: 0x2690, symBinAddr: 0x100006BC4, symSize: 0x3C }
  - { offsetInCU: 0xBFFE, offset: 0xBFFE, size: 0x8, addend: 0x0, symName: __ZNSt3__117__compressed_pairIPNS_11__tree_nodeINS_12__value_typeIiiEEPvEENS_22__tree_node_destructorINS_9allocatorIS5_EEEEEC2B8ue170006IRS6_SA_EEOT_OT0_, symObjAddr: 0x26CC, symBinAddr: 0x100006C00, symSize: 0x48 }
  - { offsetInCU: 0xC054, offset: 0xC054, size: 0x8, addend: 0x0, symName: __ZNSt3__122__compressed_pair_elemIPNS_11__tree_nodeINS_12__value_typeIiiEEPvEELi0ELb0EEC2B8ue170006IRS6_vEEOT_, symObjAddr: 0x2714, symBinAddr: 0x100006C48, symSize: 0x24 }
  - { offsetInCU: 0xC094, offset: 0xC094, size: 0x8, addend: 0x0, symName: __ZNSt3__122__compressed_pair_elemINS_22__tree_node_destructorINS_9allocatorINS_11__tree_nodeINS_12__value_typeIiiEEPvEEEEEELi1ELb0EEC2B8ue170006IS9_vEEOT_, symObjAddr: 0x2738, symBinAddr: 0x100006C6C, symSize: 0x24 }
  - { offsetInCU: 0xC0D4, offset: 0xC0D4, size: 0x8, addend: 0x0, symName: __ZNSt3__19allocatorINS_11__tree_nodeINS_12__value_typeIiiEEPvEEE9constructB8ue170006INS_4pairIKiiEEJRKNS_21piecewise_construct_tENS_5tupleIJRS9_EEENSE_IJEEEEEEvPT_DpOT0_, symObjAddr: 0x275C, symBinAddr: 0x100006C90, symSize: 0x44 }
  - { offsetInCU: 0xC14E, offset: 0xC14E, size: 0x8, addend: 0x0, symName: __ZNSt3__14pairIKiiEC1B8ue170006IJRS1_EJEEENS_21piecewise_construct_tENS_5tupleIJDpT_EEENS6_IJDpT0_EEE, symObjAddr: 0x27A0, symBinAddr: 0x100006CD4, symSize: 0x44 }
  - { offsetInCU: 0xC1B4, offset: 0xC1B4, size: 0x8, addend: 0x0, symName: __ZNSt3__14pairIKiiEC1B8ue170006IJRS1_EJEJLm0EEJEEENS_21piecewise_construct_tERNS_5tupleIJDpT_EEERNS6_IJDpT0_EEENS_15__tuple_indicesIJXspT1_EEEENSF_IJXspT2_EEEE, symObjAddr: 0x27E4, symBinAddr: 0x100006D18, symSize: 0x3C }
  - { offsetInCU: 0xC243, offset: 0xC243, size: 0x8, addend: 0x0, symName: __ZNSt3__14pairIKiiEC2B8ue170006IJRS1_EJEJLm0EEJEEENS_21piecewise_construct_tERNS_5tupleIJDpT_EEERNS6_IJDpT0_EEENS_15__tuple_indicesIJXspT1_EEEENSF_IJXspT2_EEEE, symObjAddr: 0x2820, symBinAddr: 0x100006D54, symSize: 0x48 }
  - { offsetInCU: 0xC2D1, offset: 0xC2D1, size: 0x8, addend: 0x0, symName: __ZNSt3__112__tuple_leafILm0ERKiLb0EE3getB8ue170006Ev, symObjAddr: 0x288C, symBinAddr: 0x100006DC0, symSize: 0x18 }
  - { offsetInCU: 0xC2F5, offset: 0xC2F5, size: 0x8, addend: 0x0, symName: __ZNKSt3__117__compressed_pairIPNS_11__tree_nodeINS_12__value_typeIiiEEPvEENS_22__tree_node_destructorINS_9allocatorIS5_EEEEE5firstB8ue170006Ev, symObjAddr: 0x28A4, symBinAddr: 0x100006DD8, symSize: 0x24 }
  - { offsetInCU: 0xC319, offset: 0xC319, size: 0x8, addend: 0x0, symName: __ZNKSt3__122__compressed_pair_elemIPNS_11__tree_nodeINS_12__value_typeIiiEEPvEELi0ELb0EE5__getB8ue170006Ev, symObjAddr: 0x28C8, symBinAddr: 0x100006DFC, symSize: 0x14 }
  - { offsetInCU: 0xC33D, offset: 0xC33D, size: 0x8, addend: 0x0, symName: __ZNSt3__117__compressed_pairIPNS_11__tree_nodeINS_12__value_typeIiiEEPvEENS_22__tree_node_destructorINS_9allocatorIS5_EEEEE6secondB8ue170006Ev, symObjAddr: 0x28DC, symBinAddr: 0x100006E10, symSize: 0x28 }
  - { offsetInCU: 0xC361, offset: 0xC361, size: 0x8, addend: 0x0, symName: __ZNSt3__122__compressed_pair_elemINS_22__tree_node_destructorINS_9allocatorINS_11__tree_nodeINS_12__value_typeIiiEEPvEEEEEELi1ELb0EE5__getB8ue170006Ev, symObjAddr: 0x2904, symBinAddr: 0x100006E38, symSize: 0x14 }
  - { offsetInCU: 0xC385, offset: 0xC385, size: 0x8, addend: 0x0, symName: __ZNSt3__16__treeINS_12__value_typeIiiEENS_19__map_value_compareIiS2_NS_4lessIiEELb1EEENS_9allocatorIS2_EEE4sizeB8ue170006Ev, symObjAddr: 0x2C44, symBinAddr: 0x100007178, symSize: 0x28 }
  - { offsetInCU: 0xC3A9, offset: 0xC3A9, size: 0x8, addend: 0x0, symName: __ZNKSt3__116__tree_node_baseIPvE15__parent_unsafeB8ue170006Ev, symObjAddr: 0x2C6C, symBinAddr: 0x1000071A0, symSize: 0x18 }
  - { offsetInCU: 0xC3CD, offset: 0xC3CD, size: 0x8, addend: 0x0, symName: __ZNSt3__116__tree_node_baseIPvE12__set_parentB8ue170006EPS2_, symObjAddr: 0x2E54, symBinAddr: 0x100007388, symSize: 0x20 }
  - { offsetInCU: 0xC400, offset: 0xC400, size: 0x8, addend: 0x0, symName: __ZNSt3__117__compressed_pairImNS_19__map_value_compareIiNS_12__value_typeIiiEENS_4lessIiEELb1EEEE5firstB8ue170006Ev, symObjAddr: 0x2E74, symBinAddr: 0x1000073A8, symSize: 0x24 }
  - { offsetInCU: 0xC424, offset: 0xC424, size: 0x8, addend: 0x0, symName: __ZNSt3__122__compressed_pair_elemImLi0ELb0EE5__getB8ue170006Ev, symObjAddr: 0x2E98, symBinAddr: 0x1000073CC, symSize: 0x14 }
  - { offsetInCU: 0xC448, offset: 0xC448, size: 0x8, addend: 0x0, symName: __ZNSt3__117__compressed_pairIPNS_11__tree_nodeINS_12__value_typeIiiEEPvEENS_22__tree_node_destructorINS_9allocatorIS5_EEEEE5firstB8ue170006Ev, symObjAddr: 0x2EAC, symBinAddr: 0x1000073E0, symSize: 0x24 }
  - { offsetInCU: 0xC46C, offset: 0xC46C, size: 0x8, addend: 0x0, symName: __ZNSt3__122__compressed_pair_elemIPNS_11__tree_nodeINS_12__value_typeIiiEEPvEELi0ELb0EE5__getB8ue170006Ev, symObjAddr: 0x2ED0, symBinAddr: 0x100007404, symSize: 0x14 }
  - { offsetInCU: 0xC490, offset: 0xC490, size: 0x8, addend: 0x0, symName: __ZNSt3__110unique_ptrINS_11__tree_nodeINS_12__value_typeIiiEEPvEENS_22__tree_node_destructorINS_9allocatorIS5_EEEEED2B8ue170006Ev, symObjAddr: 0x2EE4, symBinAddr: 0x100007418, symSize: 0x30 }
  - { offsetInCU: 0xC4B8, offset: 0xC4B8, size: 0x8, addend: 0x0, symName: __ZNSt3__110unique_ptrINS_11__tree_nodeINS_12__value_typeIiiEEPvEENS_22__tree_node_destructorINS_9allocatorIS5_EEEEE5resetB8ue170006EPS5_, symObjAddr: 0x2F14, symBinAddr: 0x100007448, symSize: 0x78 }
  - { offsetInCU: 0xC4FA, offset: 0xC4FA, size: 0x8, addend: 0x0, symName: __ZNSt3__122__tree_node_destructorINS_9allocatorINS_11__tree_nodeINS_12__value_typeIiiEEPvEEEEEclB8ue170006EPS6_, symObjAddr: 0x2F8C, symBinAddr: 0x1000074C0, symSize: 0x94 }
  - { offsetInCU: 0xC52D, offset: 0xC52D, size: 0x8, addend: 0x0, symName: __ZNSt3__115__tree_iteratorINS_12__value_typeIiiEEPNS_11__tree_nodeIS2_PvEElEC2B8ue170006ES6_, symObjAddr: 0x3020, symBinAddr: 0x100007554, symSize: 0x20 }
  - { offsetInCU: 0xC564, offset: 0xC564, size: 0x8, addend: 0x0, symName: __ZNSt3__14pairINS_15__tree_iteratorINS_12__value_typeIiiEEPNS_11__tree_nodeIS3_PvEElEEbEC2B8ue170006IS8_RbLS5_0EEEOT_OT0_, symObjAddr: 0x3040, symBinAddr: 0x100007574, symSize: 0x38 }
  - { offsetInCU: 0xC5C0, offset: 0xC5C0, size: 0x8, addend: 0x0, symName: __ZNSt3__15tupleIJRKiEEC1B8ue170006INS_4_AndELi0EEES2_, symObjAddr: 0x3078, symBinAddr: 0x1000075AC, symSize: 0x34 }
  - { offsetInCU: 0xC606, offset: 0xC606, size: 0x8, addend: 0x0, symName: __ZNSt3__15tupleIJRKiEEC2B8ue170006INS_4_AndELi0EEES2_, symObjAddr: 0x30AC, symBinAddr: 0x1000075E0, symSize: 0x34 }
  - { offsetInCU: 0xC64C, offset: 0xC64C, size: 0x8, addend: 0x0, symName: __ZNSt3__112__tuple_implINS_15__tuple_indicesIJLm0EEEEJRKiEEC1B8ue170006IJLm0EEJS4_EJEJEJS4_EEENS1_IJXspT_EEEENS_13__tuple_typesIJDpT0_EEENS1_IJXspT1_EEEENS8_IJDpT2_EEEDpOT3_, symObjAddr: 0x30E0, symBinAddr: 0x100007614, symSize: 0x34 }
  - { offsetInCU: 0xC6DF, offset: 0xC6DF, size: 0x8, addend: 0x0, symName: __ZNSt3__112__tuple_implINS_15__tuple_indicesIJLm0EEEEJRKiEEC2B8ue170006IJLm0EEJS4_EJEJEJS4_EEENS1_IJXspT_EEEENS_13__tuple_typesIJDpT0_EEENS1_IJXspT1_EEEENS8_IJDpT2_EEEDpOT3_, symObjAddr: 0x3114, symBinAddr: 0x100007648, symSize: 0x34 }
  - { offsetInCU: 0xC772, offset: 0xC772, size: 0x8, addend: 0x0, symName: __ZNSt3__112__tuple_leafILm0ERKiLb0EEC2B8ue170006IS2_vEEOT_, symObjAddr: 0x3148, symBinAddr: 0x10000767C, symSize: 0x20 }
  - { offsetInCU: 0xC7B4, offset: 0xC7B4, size: 0x8, addend: 0x0, symName: __ZNSt3__114pointer_traitsIPNS_12__value_typeIiiEEE10pointer_toB8ue170006ERS2_, symObjAddr: 0x3168, symBinAddr: 0x10000769C, symSize: 0x14 }
  - { offsetInCU: 0xC7D6, offset: 0xC7D6, size: 0x8, addend: 0x0, symName: __ZNKSt3__115__tree_iteratorINS_12__value_typeIiiEEPNS_11__tree_nodeIS2_PvEElE8__get_npB8ue170006Ev, symObjAddr: 0x317C, symBinAddr: 0x1000076B0, symSize: 0x18 }
  - { offsetInCU: 0xC7FA, offset: 0xC7FA, size: 0x8, addend: 0x0, symName: __ZNKSt3__16__lessIvvEclB8ue170006IiiEEbRKT_RKT0_, symObjAddr: 0x31E8, symBinAddr: 0x10000771C, symSize: 0x34 }
  - { offsetInCU: 0xC84C, offset: 0xC84C, size: 0x8, addend: 0x0, symName: __ZNSt3__16__treeINS_12__value_typeIiiEENS_19__map_value_compareIiS2_NS_4lessIiEELb1EEENS_9allocatorIS2_EEE4findIiEENS_15__tree_iteratorIS2_PNS_11__tree_nodeIS2_PvEElEERKT_, symObjAddr: 0x321C, symBinAddr: 0x100007750, symSize: 0xF8 }
  - { offsetInCU: 0xC899, offset: 0xC899, size: 0x8, addend: 0x0, symName: __ZNSt3__114__map_iteratorINS_15__tree_iteratorINS_12__value_typeIiiEEPNS_11__tree_nodeIS3_PvEElEEEC1B8ue170006ES8_, symObjAddr: 0x3314, symBinAddr: 0x100007848, symSize: 0x34 }
  - { offsetInCU: 0xC8D0, offset: 0xC8D0, size: 0x8, addend: 0x0, symName: __ZNSt3__16__treeINS_12__value_typeIiiEENS_19__map_value_compareIiS2_NS_4lessIiEELb1EEENS_9allocatorIS2_EEE13__lower_boundIiEENS_15__tree_iteratorIS2_PNS_11__tree_nodeIS2_PvEElEERKT_SF_PNS_15__tree_end_nodeIPNS_16__tree_node_baseISD_EEEE, symObjAddr: 0x3348, symBinAddr: 0x10000787C, symSize: 0xA4 }
  - { offsetInCU: 0xC92C, offset: 0xC92C, size: 0x8, addend: 0x0, symName: __ZNSt3__16__treeINS_12__value_typeIiiEENS_19__map_value_compareIiS2_NS_4lessIiEELb1EEENS_9allocatorIS2_EEE3endB8ue170006Ev, symObjAddr: 0x3420, symBinAddr: 0x100007954, symSize: 0x34 }
  - { offsetInCU: 0xC950, offset: 0xC950, size: 0x8, addend: 0x0, symName: __ZNKSt3__115__tree_iteratorINS_12__value_typeIiiEEPNS_11__tree_nodeIS2_PvEElEdeB8ue170006Ev, symObjAddr: 0x3454, symBinAddr: 0x100007988, symSize: 0x28 }
  - { offsetInCU: 0xC974, offset: 0xC974, size: 0x8, addend: 0x0, symName: __ZNSt3__115__tree_iteratorINS_12__value_typeIiiEEPNS_11__tree_nodeIS2_PvEElEC1B8ue170006EPNS_15__tree_end_nodeIPNS_16__tree_node_baseIS4_EEEE, symObjAddr: 0x347C, symBinAddr: 0x1000079B0, symSize: 0x34 }
  - { offsetInCU: 0xC9AB, offset: 0xC9AB, size: 0x8, addend: 0x0, symName: __ZNSt3__115__tree_iteratorINS_12__value_typeIiiEEPNS_11__tree_nodeIS2_PvEElEC2B8ue170006EPNS_15__tree_end_nodeIPNS_16__tree_node_baseIS4_EEEE, symObjAddr: 0x34B0, symBinAddr: 0x1000079E4, symSize: 0x20 }
  - { offsetInCU: 0xC9E2, offset: 0xC9E2, size: 0x8, addend: 0x0, symName: __ZNSt3__114__map_iteratorINS_15__tree_iteratorINS_12__value_typeIiiEEPNS_11__tree_nodeIS3_PvEElEEEC2B8ue170006ES8_, symObjAddr: 0x3500, symBinAddr: 0x100007A34, symSize: 0x20 }
...
