---
triple:          'arm64-apple-darwin'
binary-path:     '/Users/nantaporn/Documents/Algorithm/output/a62_q1b_virus'
relocations:
  - { offsetInCU: 0x4283, offset: 0x4283, size: 0x8, addend: 0x0, symName: __ZNSt3__124__put_character_sequenceB8ue170006IcNS_11char_traitsIcEEEERNS_13basic_ostreamIT_T0_EES7_PKS4_m, symObjAddr: 0x2044, symBinAddr: 0x100002F78, symSize: 0x1EC }
  - { offsetInCU: 0x5DE3, offset: 0x5DE3, size: 0x8, addend: 0x0, symName: __ZNSt3__14swapB8ue170006IiEENS_9enable_ifIXaasr21is_move_constructibleIT_EE5valuesr18is_move_assignableIS2_EE5valueEvE4typeERS2_S5_, symObjAddr: 0x120, symBinAddr: 0x100001054, symSize: 0x3C }
  - { offsetInCU: 0x5E34, offset: 0x5E34, size: 0x8, addend: 0x0, symName: __ZNSt3__1lsB8ue170006INS_11char_traitsIcEEEERNS_13basic_ostreamIcT_EES6_PKc, symObjAddr: 0x744, symBinAddr: 0x100001678, symSize: 0x48 }
  - { offsetInCU: 0x5E7A, offset: 0x5E7A, size: 0x8, addend: 0x0, symName: __ZNSt3__14endlB8ue170006IcNS_11char_traitsIcEEEERNS_13basic_ostreamIT_T0_EES7_, symObjAddr: 0x7B8, symBinAddr: 0x1000016EC, symSize: 0x58 }
  - { offsetInCU: 0x5EBA, offset: 0x5EBA, size: 0x8, addend: 0x0, symName: __ZNSt3__122__make_exception_guardB8ue170006INS_6vectorIiNS_9allocatorIiEEE16__destroy_vectorEEENS_28__exception_guard_exceptionsIT_EES7_, symObjAddr: 0xA80, symBinAddr: 0x1000019B4, symSize: 0x40 }
  - { offsetInCU: 0x5EEF, offset: 0x5EEF, size: 0x8, addend: 0x0, symName: __ZNSt3__119__allocate_at_leastB8ue170006INS_9allocatorIiEEEENS_19__allocation_resultINS_16allocator_traitsIT_E7pointerEEERS5_m, symObjAddr: 0xD68, symBinAddr: 0x100001C9C, symSize: 0x40 }
  - { offsetInCU: 0x5F32, offset: 0x5F32, size: 0x8, addend: 0x0, symName: __ZNSt3__13minB8ue170006ImEERKT_S3_S3_, symObjAddr: 0xEA4, symBinAddr: 0x100001DD8, symSize: 0x2C }
  - { offsetInCU: 0x6176, offset: 0x6176, size: 0x8, addend: 0x0, symName: __ZNSt3__13minB8ue170006ImNS_6__lessIvvEEEERKT_S5_S5_T0_, symObjAddr: 0xF14, symBinAddr: 0x100001E48, symSize: 0x54 }
  - { offsetInCU: 0x6215, offset: 0x6215, size: 0x8, addend: 0x0, symName: __ZNSt3__120__throw_length_errorB8ue170006EPKc, symObjAddr: 0xFB8, symBinAddr: 0x100001EEC, symSize: 0x64 }
  - { offsetInCU: 0x623F, offset: 0x623F, size: 0x8, addend: 0x0, symName: __ZNSt3__117__libcpp_allocateB8ue170006Emm, symObjAddr: 0x1128, symBinAddr: 0x10000205C, symSize: 0x28 }
  - { offsetInCU: 0x627C, offset: 0x627C, size: 0x8, addend: 0x0, symName: __ZNSt3__121__libcpp_operator_newB8ue170006IJmEEEPvDpT_, symObjAddr: 0x1150, symBinAddr: 0x100002084, symSize: 0x24 }
  - { offsetInCU: 0x62B5, offset: 0x62B5, size: 0x8, addend: 0x0, symName: __ZNSt3__112__to_addressB8ue170006IiEEPT_S2_, symObjAddr: 0x126C, symBinAddr: 0x1000021A0, symSize: 0x14 }
  - { offsetInCU: 0x62EA, offset: 0x62EA, size: 0x8, addend: 0x0, symName: __ZNSt3__130__uninitialized_allocator_copyB8ue170006INS_9allocatorIiEEPiS3_S3_EET2_RT_T0_T1_S4_, symObjAddr: 0x131C, symBinAddr: 0x100002250, symSize: 0x80 }
  - { offsetInCU: 0x6387, offset: 0x6387, size: 0x8, addend: 0x0, symName: __ZNSt3__114__unwrap_rangeB8ue170006IPiS1_EENS_4pairIT0_S3_EET_S5_, symObjAddr: 0x140C, symBinAddr: 0x100002340, symSize: 0x60 }
  - { offsetInCU: 0x63D3, offset: 0x63D3, size: 0x8, addend: 0x0, symName: __ZNSt3__135__uninitialized_allocator_copy_implB8ue170006INS_9allocatorIiEEiiiLPv0EEEPT2_RT_PT0_S9_S5_, symObjAddr: 0x146C, symBinAddr: 0x1000023A0, symSize: 0x38 }
  - { offsetInCU: 0x6454, offset: 0x6454, size: 0x8, addend: 0x0, symName: __ZNSt3__113__unwrap_iterB8ue170006IPiNS_18__unwrap_iter_implIS1_Lb1EEELi0EEEDTclsrT0_8__unwrapclsr3stdE7declvalIT_EEEES5_, symObjAddr: 0x14A4, symBinAddr: 0x1000023D8, symSize: 0x24 }
  - { offsetInCU: 0x6498, offset: 0x6498, size: 0x8, addend: 0x0, symName: __ZNSt3__113__rewrap_iterB8ue170006IPiS1_NS_18__unwrap_iter_implIS1_Lb1EEEEET_S4_T0_, symObjAddr: 0x14C8, symBinAddr: 0x1000023FC, symSize: 0x3C }
  - { offsetInCU: 0x64ED, offset: 0x64ED, size: 0x8, addend: 0x0, symName: __ZNSt3__19make_pairB8ue170006IPiS1_EENS_4pairINS_18__unwrap_ref_decayIT_E4typeENS3_IT0_E4typeEEEOS4_OS7_, symObjAddr: 0x1504, symBinAddr: 0x100002438, symSize: 0x38 }
  - { offsetInCU: 0x663F, offset: 0x663F, size: 0x8, addend: 0x0, symName: __ZNSt3__14copyB8ue170006IPiS1_EET0_T_S3_S2_, symObjAddr: 0x15AC, symBinAddr: 0x1000024E0, symSize: 0x40 }
  - { offsetInCU: 0x6699, offset: 0x6699, size: 0x8, addend: 0x0, symName: __ZNSt3__16__copyB8ue170006INS_17_ClassicAlgPolicyEPiS2_S2_EENS_4pairIT0_T2_EES4_T1_S5_, symObjAddr: 0x15EC, symBinAddr: 0x100002520, symSize: 0x44 }
  - { offsetInCU: 0x6705, offset: 0x6705, size: 0x8, addend: 0x0, symName: __ZNSt3__123__dispatch_copy_or_moveB8ue170006INS_17_ClassicAlgPolicyENS_11__copy_loopIS1_EENS_14__copy_trivialEPiS5_S5_EENS_4pairIT2_T4_EES7_T3_S8_, symObjAddr: 0x1630, symBinAddr: 0x100002564, symSize: 0x44 }
  - { offsetInCU: 0x6783, offset: 0x6783, size: 0x8, addend: 0x0, symName: __ZNSt3__121__unwrap_and_dispatchB8ue170006INS_10__overloadINS_11__copy_loopINS_17_ClassicAlgPolicyEEENS_14__copy_trivialEEEPiS7_S7_Li0EEENS_4pairIT0_T2_EES9_T1_SA_, symObjAddr: 0x1674, symBinAddr: 0x1000025A8, symSize: 0xB4 }
  - { offsetInCU: 0x6857, offset: 0x6857, size: 0x8, addend: 0x0, symName: __ZNSt3__114__rewrap_rangeB8ue170006IPiS1_EET_S2_T0_, symObjAddr: 0x1770, symBinAddr: 0x1000026A4, symSize: 0x2C }
  - { offsetInCU: 0x68A3, offset: 0x68A3, size: 0x8, addend: 0x0, symName: __ZNSt3__119__copy_trivial_implB8ue170006IiiEENS_4pairIPT_PT0_EES3_S3_S5_, symObjAddr: 0x179C, symBinAddr: 0x1000026D0, symSize: 0x80 }
  - { offsetInCU: 0x690B, offset: 0x690B, size: 0x8, addend: 0x0, symName: __ZNSt3__119__constexpr_memmoveB8ue170006IiiLi0EEEPT_S2_PT0_NS_15__element_countE, symObjAddr: 0x181C, symBinAddr: 0x100002750, symSize: 0x64 }
  - { offsetInCU: 0x6979, offset: 0x6979, size: 0x8, addend: 0x0, symName: __ZNSt3__19make_pairB8ue170006IRPiS1_EENS_4pairINS_18__unwrap_ref_decayIT_E4typeENS4_IT0_E4typeEEEOS5_OS8_, symObjAddr: 0x1880, symBinAddr: 0x1000027B4, symSize: 0x38 }
  - { offsetInCU: 0x6A1B, offset: 0x6A1B, size: 0x8, addend: 0x0, symName: __ZNSt3__119__libcpp_deallocateB8ue170006EPvmm, symObjAddr: 0x1CBC, symBinAddr: 0x100002BF0, symSize: 0x30 }
  - { offsetInCU: 0x6A63, offset: 0x6A63, size: 0x8, addend: 0x0, symName: __ZNSt3__127__do_deallocate_handle_sizeB8ue170006IJEEEvPvmDpT_, symObjAddr: 0x1CEC, symBinAddr: 0x100002C20, symSize: 0x28 }
  - { offsetInCU: 0x6AA1, offset: 0x6AA1, size: 0x8, addend: 0x0, symName: __ZNSt3__124__libcpp_operator_deleteB8ue170006IJPvEEEvDpT_, symObjAddr: 0x1D14, symBinAddr: 0x100002C48, symSize: 0x24 }
  - { offsetInCU: 0x6AD6, offset: 0x6AD6, size: 0x8, addend: 0x0, symName: __ZNSt3__116__pad_and_outputB8ue170006IcNS_11char_traitsIcEEEENS_19ostreambuf_iteratorIT_T0_EES6_PKS4_S8_S8_RNS_8ios_baseES4_, symObjAddr: 0x2280, symBinAddr: 0x1000031B4, symSize: 0x240 }
  - { offsetInCU: 0x6BA5, offset: 0x6BA5, size: 0x8, addend: 0x0, symName: __ZNSt3__112__to_addressB8ue170006IKcEEPT_S3_, symObjAddr: 0x27E8, symBinAddr: 0x10000371C, symSize: 0x14 }
  - { offsetInCU: 0x6C0D, offset: 0x6C0D, size: 0x8, addend: 0x0, symName: __ZNSt3__19use_facetB8ue170006INS_5ctypeIcEEEERKT_RKNS_6localeE, symObjAddr: 0x2A68, symBinAddr: 0x10000399C, symSize: 0x2C }
  - { offsetInCU: 0x70DA, offset: 0x70DA, size: 0x8, addend: 0x0, symName: __ZNSt3__118__constexpr_strlenB8ue170006EPKc, symObjAddr: 0x2B00, symBinAddr: 0x100003A34, symSize: 0x24 }
  - { offsetInCU: 0x743B, offset: 0x743B, size: 0x8, addend: 0x0, symName: __ZSt28__throw_bad_array_new_lengthB8ue170006v, symObjAddr: 0x10F4, symBinAddr: 0x100002028, symSize: 0x34 }
  - { offsetInCU: 0x7882, offset: 0x7882, size: 0x8, addend: 0x0, symName: __Z3powB8ue170006IiiENSt3__19enable_ifIXaasr3std13is_arithmeticIT_EE5valuesr3std13is_arithmeticIT0_EE5valueENS0_9__promoteIS2_S3_vEEE4type4typeES2_S3_, symObjAddr: 0x6A4, symBinAddr: 0x1000015D8, symSize: 0x44 }
  - { offsetInCU: 0x9C94, offset: 0x9C94, size: 0x8, addend: 0x0, symName: __Z2reNSt3__16vectorIiNS_9allocatorIiEEEEii, symObjAddr: 0x0, symBinAddr: 0x100000F34, symSize: 0xEC }
  - { offsetInCU: 0x9CED, offset: 0x9CED, size: 0x8, addend: 0x0, symName: __ZNSt3__16vectorIiNS_9allocatorIiEEEC1ERKS3_, symObjAddr: 0xEC, symBinAddr: 0x100001020, symSize: 0x34 }
  - { offsetInCU: 0x9D28, offset: 0x9D28, size: 0x8, addend: 0x0, symName: __ZNSt3__16vectorIiNS_9allocatorIiEEEixB8ue170006Em, symObjAddr: 0x15C, symBinAddr: 0x100001090, symSize: 0x24 }
  - { offsetInCU: 0x9D5F, offset: 0x9D5F, size: 0x8, addend: 0x0, symName: __ZNSt3__16vectorIiNS_9allocatorIiEEED1B8ue170006Ev, symObjAddr: 0x180, symBinAddr: 0x1000010B4, symSize: 0x2C }
  - { offsetInCU: 0x9D88, offset: 0x9D88, size: 0x8, addend: 0x0, symName: __Z11check_virusNSt3__16vectorIiNS_9allocatorIiEEEEii, symObjAddr: 0x1AC, symBinAddr: 0x1000010E0, symSize: 0x314 }
  - { offsetInCU: 0x9DE0, offset: 0x9DE0, size: 0x8, addend: 0x0, symName: _main, symObjAddr: 0x4C0, symBinAddr: 0x1000013F4, symSize: 0x1E4 }
  - { offsetInCU: 0x9E78, offset: 0x9E78, size: 0x8, addend: 0x0, symName: __ZNSt3__16vectorIiNS_9allocatorIiEEEC1Em, symObjAddr: 0x6E8, symBinAddr: 0x10000161C, symSize: 0x34 }
  - { offsetInCU: 0x9EB3, offset: 0x9EB3, size: 0x8, addend: 0x0, symName: __ZNKSt3__16vectorIiNS_9allocatorIiEEE4sizeB8ue170006Ev, symObjAddr: 0x71C, symBinAddr: 0x100001650, symSize: 0x28 }
  - { offsetInCU: 0x9ED9, offset: 0x9ED9, size: 0x8, addend: 0x0, symName: __ZNSt3__113basic_ostreamIcNS_11char_traitsIcEEElsB8ue170006EPFRS3_S4_E, symObjAddr: 0x78C, symBinAddr: 0x1000016C0, symSize: 0x2C }
  - { offsetInCU: 0x9F0D, offset: 0x9F0D, size: 0x8, addend: 0x0, symName: __ZNSt3__16vectorIiNS_9allocatorIiEEEC2ERKS3_, symObjAddr: 0x810, symBinAddr: 0x100001744, symSize: 0x94 }
  - { offsetInCU: 0x9F52, offset: 0x9F52, size: 0x8, addend: 0x0, symName: __ZNSt3__116allocator_traitsINS_9allocatorIiEEE37select_on_container_copy_constructionB8ue170006IS2_vvEES2_RKS2_, symObjAddr: 0x8A4, symBinAddr: 0x1000017D8, symSize: 0x10 }
  - { offsetInCU: 0x9F81, offset: 0x9F81, size: 0x8, addend: 0x0, symName: __ZNKSt3__16vectorIiNS_9allocatorIiEEE7__allocB8ue170006Ev, symObjAddr: 0x8B4, symBinAddr: 0x1000017E8, symSize: 0x28 }
  - { offsetInCU: 0x9FB1, offset: 0x9FB1, size: 0x8, addend: 0x0, symName: __ZNSt3__117__compressed_pairIPiNS_9allocatorIiEEEC1B8ue170006IDnS3_EEOT_OT0_, symObjAddr: 0x8DC, symBinAddr: 0x100001810, symSize: 0x3C }
  - { offsetInCU: 0xA009, offset: 0xA009, size: 0x8, addend: 0x0, symName: __ZNSt3__16vectorIiNS_9allocatorIiEEE16__init_with_sizeB8ue170006IPiS5_EEvT_T0_m, symObjAddr: 0x918, symBinAddr: 0x10000184C, symSize: 0xB8 }
  - { offsetInCU: 0xA07D, offset: 0xA07D, size: 0x8, addend: 0x0, symName: __ZNKSt3__117__compressed_pairIPiNS_9allocatorIiEEE6secondB8ue170006Ev, symObjAddr: 0x9D0, symBinAddr: 0x100001904, symSize: 0x24 }
  - { offsetInCU: 0xA0A3, offset: 0xA0A3, size: 0x8, addend: 0x0, symName: __ZNKSt3__122__compressed_pair_elemINS_9allocatorIiEELi1ELb1EE5__getB8ue170006Ev, symObjAddr: 0x9F4, symBinAddr: 0x100001928, symSize: 0x14 }
  - { offsetInCU: 0xA0C9, offset: 0xA0C9, size: 0x8, addend: 0x0, symName: __ZNSt3__117__compressed_pairIPiNS_9allocatorIiEEEC2B8ue170006IDnS3_EEOT_OT0_, symObjAddr: 0xA08, symBinAddr: 0x10000193C, symSize: 0x44 }
  - { offsetInCU: 0xA121, offset: 0xA121, size: 0x8, addend: 0x0, symName: __ZNSt3__122__compressed_pair_elemIPiLi0ELb0EEC2B8ue170006IDnvEEOT_, symObjAddr: 0xA4C, symBinAddr: 0x100001980, symSize: 0x1C }
  - { offsetInCU: 0xA163, offset: 0xA163, size: 0x8, addend: 0x0, symName: __ZNSt3__122__compressed_pair_elemINS_9allocatorIiEELi1ELb1EEC2B8ue170006IS2_vEEOT_, symObjAddr: 0xA68, symBinAddr: 0x10000199C, symSize: 0x18 }
  - { offsetInCU: 0xA1A5, offset: 0xA1A5, size: 0x8, addend: 0x0, symName: __ZNSt3__16vectorIiNS_9allocatorIiEEE16__destroy_vectorC1B8ue170006ERS3_, symObjAddr: 0xAC0, symBinAddr: 0x1000019F4, symSize: 0x34 }
  - { offsetInCU: 0xA1DE, offset: 0xA1DE, size: 0x8, addend: 0x0, symName: __ZNSt3__16vectorIiNS_9allocatorIiEEE11__vallocateB8ue170006Em, symObjAddr: 0xAF4, symBinAddr: 0x100001A28, symSize: 0xAC }
  - { offsetInCU: 0xA222, offset: 0xA222, size: 0x8, addend: 0x0, symName: __ZNSt3__16vectorIiNS_9allocatorIiEEE18__construct_at_endIPiS5_EEvT_T0_m, symObjAddr: 0xBA0, symBinAddr: 0x100001AD4, symSize: 0x8C }
  - { offsetInCU: 0xA298, offset: 0xA298, size: 0x8, addend: 0x0, symName: __ZNSt3__128__exception_guard_exceptionsINS_6vectorIiNS_9allocatorIiEEE16__destroy_vectorEE10__completeB8ue170006Ev, symObjAddr: 0xC2C, symBinAddr: 0x100001B60, symSize: 0x1C }
  - { offsetInCU: 0xA2BE, offset: 0xA2BE, size: 0x8, addend: 0x0, symName: __ZNSt3__128__exception_guard_exceptionsINS_6vectorIiNS_9allocatorIiEEE16__destroy_vectorEED1B8ue170006Ev, symObjAddr: 0xC48, symBinAddr: 0x100001B7C, symSize: 0x2C }
  - { offsetInCU: 0xA2E8, offset: 0xA2E8, size: 0x8, addend: 0x0, symName: __ZNSt3__128__exception_guard_exceptionsINS_6vectorIiNS_9allocatorIiEEE16__destroy_vectorEEC1B8ue170006ES5_, symObjAddr: 0xC74, symBinAddr: 0x100001BA8, symSize: 0x34 }
  - { offsetInCU: 0xA320, offset: 0xA320, size: 0x8, addend: 0x0, symName: __ZNSt3__128__exception_guard_exceptionsINS_6vectorIiNS_9allocatorIiEEE16__destroy_vectorEEC2B8ue170006ES5_, symObjAddr: 0xCA8, symBinAddr: 0x100001BDC, symSize: 0x24 }
  - { offsetInCU: 0xA358, offset: 0xA358, size: 0x8, addend: 0x0, symName: __ZNSt3__16vectorIiNS_9allocatorIiEEE16__destroy_vectorC2B8ue170006ERS3_, symObjAddr: 0xCCC, symBinAddr: 0x100001C00, symSize: 0x20 }
  - { offsetInCU: 0xA391, offset: 0xA391, size: 0x8, addend: 0x0, symName: __ZNKSt3__16vectorIiNS_9allocatorIiEEE8max_sizeEv, symObjAddr: 0xCEC, symBinAddr: 0x100001C20, symSize: 0x60 }
  - { offsetInCU: 0xA3B9, offset: 0xA3B9, size: 0x8, addend: 0x0, symName: __ZNKSt3__16vectorIiNS_9allocatorIiEEE20__throw_length_errorB8ue170006Ev, symObjAddr: 0xD4C, symBinAddr: 0x100001C80, symSize: 0x1C }
  - { offsetInCU: 0xA3DF, offset: 0xA3DF, size: 0x8, addend: 0x0, symName: __ZNSt3__16vectorIiNS_9allocatorIiEEE7__allocB8ue170006Ev, symObjAddr: 0xDA8, symBinAddr: 0x100001CDC, symSize: 0x28 }
  - { offsetInCU: 0xA405, offset: 0xA405, size: 0x8, addend: 0x0, symName: __ZNSt3__16vectorIiNS_9allocatorIiEEE9__end_capB8ue170006Ev, symObjAddr: 0xDD0, symBinAddr: 0x100001D04, symSize: 0x28 }
  - { offsetInCU: 0xA42B, offset: 0xA42B, size: 0x8, addend: 0x0, symName: __ZNKSt3__16vectorIiNS_9allocatorIiEEE14__annotate_newB8ue170006Em, symObjAddr: 0xDF8, symBinAddr: 0x100001D2C, symSize: 0xAC }
  - { offsetInCU: 0xA460, offset: 0xA460, size: 0x8, addend: 0x0, symName: __ZNSt3__116allocator_traitsINS_9allocatorIiEEE8max_sizeB8ue170006IS2_vEEmRKS2_, symObjAddr: 0xED0, symBinAddr: 0x100001E04, symSize: 0x24 }
  - { offsetInCU: 0xA48E, offset: 0xA48E, size: 0x8, addend: 0x0, symName: __ZNSt3__114numeric_limitsIlE3maxB8ue170006Ev, symObjAddr: 0xEF4, symBinAddr: 0x100001E28, symSize: 0x14 }
  - { offsetInCU: 0xA4B6, offset: 0xA4B6, size: 0x8, addend: 0x0, symName: __ZNKSt3__16__lessIvvEclB8ue170006ImmEEbRKT_RKT0_, symObjAddr: 0xF68, symBinAddr: 0x100001E9C, symSize: 0x34 }
  - { offsetInCU: 0xA50A, offset: 0xA50A, size: 0x8, addend: 0x0, symName: __ZNKSt3__19allocatorIiE8max_sizeB8ue170006Ev, symObjAddr: 0xF9C, symBinAddr: 0x100001ED0, symSize: 0x14 }
  - { offsetInCU: 0xA530, offset: 0xA530, size: 0x8, addend: 0x0, symName: __ZNSt3__123__libcpp_numeric_limitsIlLb1EE3maxB8ue170006Ev, symObjAddr: 0xFB0, symBinAddr: 0x100001EE4, symSize: 0x8 }
  - { offsetInCU: 0xA544, offset: 0xA544, size: 0x8, addend: 0x0, symName: __ZNSt12length_errorC1B8ue170006EPKc, symObjAddr: 0x101C, symBinAddr: 0x100001F50, symSize: 0x34 }
  - { offsetInCU: 0xA57C, offset: 0xA57C, size: 0x8, addend: 0x0, symName: __ZNSt12length_errorC2B8ue170006EPKc, symObjAddr: 0x1050, symBinAddr: 0x100001F84, symSize: 0x4C }
  - { offsetInCU: 0xA5B4, offset: 0xA5B4, size: 0x8, addend: 0x0, symName: __ZNSt3__19allocatorIiE8allocateB8ue170006Em, symObjAddr: 0x109C, symBinAddr: 0x100001FD0, symSize: 0x58 }
  - { offsetInCU: 0xA5E8, offset: 0xA5E8, size: 0x8, addend: 0x0, symName: __ZNSt3__117__compressed_pairIPiNS_9allocatorIiEEE6secondB8ue170006Ev, symObjAddr: 0x1174, symBinAddr: 0x1000020A8, symSize: 0x24 }
  - { offsetInCU: 0xA60E, offset: 0xA60E, size: 0x8, addend: 0x0, symName: __ZNSt3__122__compressed_pair_elemINS_9allocatorIiEELi1ELb1EE5__getB8ue170006Ev, symObjAddr: 0x1198, symBinAddr: 0x1000020CC, symSize: 0x14 }
  - { offsetInCU: 0xA634, offset: 0xA634, size: 0x8, addend: 0x0, symName: __ZNSt3__117__compressed_pairIPiNS_9allocatorIiEEE5firstB8ue170006Ev, symObjAddr: 0x11AC, symBinAddr: 0x1000020E0, symSize: 0x24 }
  - { offsetInCU: 0xA65A, offset: 0xA65A, size: 0x8, addend: 0x0, symName: __ZNSt3__122__compressed_pair_elemIPiLi0ELb0EE5__getB8ue170006Ev, symObjAddr: 0x11D0, symBinAddr: 0x100002104, symSize: 0x14 }
  - { offsetInCU: 0xA680, offset: 0xA680, size: 0x8, addend: 0x0, symName: __ZNKSt3__16vectorIiNS_9allocatorIiEEE31__annotate_contiguous_containerB8ue170006EPKvS5_S5_S5_, symObjAddr: 0x11E4, symBinAddr: 0x100002118, symSize: 0x20 }
  - { offsetInCU: 0xA6D2, offset: 0xA6D2, size: 0x8, addend: 0x0, symName: __ZNKSt3__16vectorIiNS_9allocatorIiEEE4dataB8ue170006Ev, symObjAddr: 0x1204, symBinAddr: 0x100002138, symSize: 0x28 }
  - { offsetInCU: 0xA6F8, offset: 0xA6F8, size: 0x8, addend: 0x0, symName: __ZNKSt3__16vectorIiNS_9allocatorIiEEE8capacityB8ue170006Ev, symObjAddr: 0x122C, symBinAddr: 0x100002160, symSize: 0x40 }
  - { offsetInCU: 0xA71E, offset: 0xA71E, size: 0x8, addend: 0x0, symName: __ZNKSt3__16vectorIiNS_9allocatorIiEEE9__end_capB8ue170006Ev, symObjAddr: 0x1280, symBinAddr: 0x1000021B4, symSize: 0x28 }
  - { offsetInCU: 0xA744, offset: 0xA744, size: 0x8, addend: 0x0, symName: __ZNKSt3__117__compressed_pairIPiNS_9allocatorIiEEE5firstB8ue170006Ev, symObjAddr: 0x12A8, symBinAddr: 0x1000021DC, symSize: 0x24 }
  - { offsetInCU: 0xA76A, offset: 0xA76A, size: 0x8, addend: 0x0, symName: __ZNKSt3__122__compressed_pair_elemIPiLi0ELb0EE5__getB8ue170006Ev, symObjAddr: 0x12CC, symBinAddr: 0x100002200, symSize: 0x14 }
  - { offsetInCU: 0xA7A9, offset: 0xA7A9, size: 0x8, addend: 0x0, symName: __ZNSt3__16vectorIiNS_9allocatorIiEEE21_ConstructTransactionC1B8ue170006ERS3_m, symObjAddr: 0x12E0, symBinAddr: 0x100002214, symSize: 0x3C }
  - { offsetInCU: 0xA7F1, offset: 0xA7F1, size: 0x8, addend: 0x0, symName: __ZNSt3__16vectorIiNS_9allocatorIiEEE21_ConstructTransactionD1B8ue170006Ev, symObjAddr: 0x139C, symBinAddr: 0x1000022D0, symSize: 0x2C }
  - { offsetInCU: 0xA81B, offset: 0xA81B, size: 0x8, addend: 0x0, symName: __ZNSt3__16vectorIiNS_9allocatorIiEEE21_ConstructTransactionC2B8ue170006ERS3_m, symObjAddr: 0x13C8, symBinAddr: 0x1000022FC, symSize: 0x44 }
  - { offsetInCU: 0xA881, offset: 0xA881, size: 0x8, addend: 0x0, symName: __ZNSt3__14pairIPiS1_EC1B8ue170006IS1_S1_LPv0EEEOT_OT0_, symObjAddr: 0x153C, symBinAddr: 0x100002470, symSize: 0x3C }
  - { offsetInCU: 0xA8DF, offset: 0xA8DF, size: 0x8, addend: 0x0, symName: __ZNSt3__14pairIPiS1_EC2B8ue170006IS1_S1_LPv0EEEOT_OT0_, symObjAddr: 0x1578, symBinAddr: 0x1000024AC, symSize: 0x34 }
  - { offsetInCU: 0xA947, offset: 0xA947, size: 0x8, addend: 0x0, symName: __ZNKSt3__114__copy_trivialclB8ue170006IiiLi0EEENS_4pairIPT_PT0_EES4_S4_S6_, symObjAddr: 0x1728, symBinAddr: 0x10000265C, symSize: 0x48 }
  - { offsetInCU: 0xA9AF, offset: 0xA9AF, size: 0x8, addend: 0x0, symName: __ZNSt3__14pairIPiS1_EC1B8ue170006IRS1_S1_LPv0EEEOT_OT0_, symObjAddr: 0x18B8, symBinAddr: 0x1000027EC, symSize: 0x3C }
  - { offsetInCU: 0xAA0D, offset: 0xAA0D, size: 0x8, addend: 0x0, symName: __ZNSt3__14pairIPiS1_EC2B8ue170006IRS1_S1_LPv0EEEOT_OT0_, symObjAddr: 0x18F4, symBinAddr: 0x100002828, symSize: 0x34 }
  - { offsetInCU: 0xAA6B, offset: 0xAA6B, size: 0x8, addend: 0x0, symName: __ZNSt3__118__unwrap_iter_implIPiLb1EE8__unwrapB8ue170006ES1_, symObjAddr: 0x1928, symBinAddr: 0x10000285C, symSize: 0x24 }
  - { offsetInCU: 0xAA8E, offset: 0xAA8E, size: 0x8, addend: 0x0, symName: __ZNSt3__118__unwrap_iter_implIPiLb1EE8__rewrapB8ue170006ES1_S1_, symObjAddr: 0x194C, symBinAddr: 0x100002880, symSize: 0x50 }
  - { offsetInCU: 0xAABF, offset: 0xAABF, size: 0x8, addend: 0x0, symName: __ZNSt3__16vectorIiNS_9allocatorIiEEE21_ConstructTransactionD2B8ue170006Ev, symObjAddr: 0x199C, symBinAddr: 0x1000028D0, symSize: 0x20 }
  - { offsetInCU: 0xAAE9, offset: 0xAAE9, size: 0x8, addend: 0x0, symName: __ZNSt3__128__exception_guard_exceptionsINS_6vectorIiNS_9allocatorIiEEE16__destroy_vectorEED2B8ue170006Ev, symObjAddr: 0x19BC, symBinAddr: 0x1000028F0, symSize: 0x50 }
  - { offsetInCU: 0xAB13, offset: 0xAB13, size: 0x8, addend: 0x0, symName: __ZNSt3__16vectorIiNS_9allocatorIiEEE16__destroy_vectorclB8ue170006Ev, symObjAddr: 0x1A0C, symBinAddr: 0x100002940, symSize: 0x90 }
  - { offsetInCU: 0xAB39, offset: 0xAB39, size: 0x8, addend: 0x0, symName: __ZNSt3__16vectorIiNS_9allocatorIiEEE7__clearB8ue170006Ev, symObjAddr: 0x1A9C, symBinAddr: 0x1000029D0, symSize: 0x28 }
  - { offsetInCU: 0xAB5F, offset: 0xAB5F, size: 0x8, addend: 0x0, symName: __ZNKSt3__16vectorIiNS_9allocatorIiEEE17__annotate_deleteB8ue170006Ev, symObjAddr: 0x1AC4, symBinAddr: 0x1000029F8, symSize: 0xB8 }
  - { offsetInCU: 0xAB85, offset: 0xAB85, size: 0x8, addend: 0x0, symName: __ZNSt3__116allocator_traitsINS_9allocatorIiEEE10deallocateB8ue170006ERS2_Pim, symObjAddr: 0x1B7C, symBinAddr: 0x100002AB0, symSize: 0x34 }
  - { offsetInCU: 0xABC7, offset: 0xABC7, size: 0x8, addend: 0x0, symName: __ZNSt3__16vectorIiNS_9allocatorIiEEE22__base_destruct_at_endB8ue170006EPi, symObjAddr: 0x1BB0, symBinAddr: 0x100002AE4, symSize: 0x8C }
  - { offsetInCU: 0xAC0B, offset: 0xAC0B, size: 0x8, addend: 0x0, symName: __ZNSt3__116allocator_traitsINS_9allocatorIiEEE7destroyB8ue170006IivEEvRS2_PT_, symObjAddr: 0x1C3C, symBinAddr: 0x100002B70, symSize: 0x2C }
  - { offsetInCU: 0xAC48, offset: 0xAC48, size: 0x8, addend: 0x0, symName: __ZNSt3__19allocatorIiE7destroyB8ue170006EPi, symObjAddr: 0x1C68, symBinAddr: 0x100002B9C, symSize: 0x14 }
  - { offsetInCU: 0xAC7C, offset: 0xAC7C, size: 0x8, addend: 0x0, symName: __ZNSt3__19allocatorIiE10deallocateB8ue170006EPim, symObjAddr: 0x1C7C, symBinAddr: 0x100002BB0, symSize: 0x40 }
  - { offsetInCU: 0xACBE, offset: 0xACBE, size: 0x8, addend: 0x0, symName: __ZNSt3__16vectorIiNS_9allocatorIiEEED2B8ue170006Ev, symObjAddr: 0x1D38, symBinAddr: 0x100002C6C, symSize: 0x40 }
  - { offsetInCU: 0xACE8, offset: 0xACE8, size: 0x8, addend: 0x0, symName: __ZNSt3__16vectorIiNS_9allocatorIiEEEC2Em, symObjAddr: 0x1D78, symBinAddr: 0x100002CAC, symSize: 0xD4 }
  - { offsetInCU: 0xAD3D, offset: 0xAD3D, size: 0x8, addend: 0x0, symName: __ZNSt3__117__compressed_pairIPiNS_9allocatorIiEEEC1B8ue170006IDnNS_18__default_init_tagEEEOT_OT0_, symObjAddr: 0x1E4C, symBinAddr: 0x100002D80, symSize: 0x3C }
  - { offsetInCU: 0xAD95, offset: 0xAD95, size: 0x8, addend: 0x0, symName: __ZNSt3__16vectorIiNS_9allocatorIiEEE18__construct_at_endEm, symObjAddr: 0x1E88, symBinAddr: 0x100002DBC, symSize: 0xC8 }
  - { offsetInCU: 0xAE08, offset: 0xAE08, size: 0x8, addend: 0x0, symName: __ZNSt3__117__compressed_pairIPiNS_9allocatorIiEEEC2B8ue170006IDnNS_18__default_init_tagEEEOT_OT0_, symObjAddr: 0x1F50, symBinAddr: 0x100002E84, symSize: 0x40 }
  - { offsetInCU: 0xAE60, offset: 0xAE60, size: 0x8, addend: 0x0, symName: __ZNSt3__122__compressed_pair_elemINS_9allocatorIiEELi1ELb1EEC2B8ue170006ENS_18__default_init_tagE, symObjAddr: 0x1F90, symBinAddr: 0x100002EC4, symSize: 0x2C }
  - { offsetInCU: 0xAE95, offset: 0xAE95, size: 0x8, addend: 0x0, symName: __ZNSt3__19allocatorIiEC2B8ue170006Ev, symObjAddr: 0x1FBC, symBinAddr: 0x100002EF0, symSize: 0x2C }
  - { offsetInCU: 0xAEBF, offset: 0xAEBF, size: 0x8, addend: 0x0, symName: __ZNSt3__116__non_trivial_ifILb1ENS_9allocatorIiEEEC2B8ue170006Ev, symObjAddr: 0x1FE8, symBinAddr: 0x100002F1C, symSize: 0x14 }
  - { offsetInCU: 0xAEE9, offset: 0xAEE9, size: 0x8, addend: 0x0, symName: __ZNSt3__116allocator_traitsINS_9allocatorIiEEE9constructB8ue170006IiJEvEEvRS2_PT_DpOT0_, symObjAddr: 0x1FFC, symBinAddr: 0x100002F30, symSize: 0x2C }
  - { offsetInCU: 0xAF2B, offset: 0xAF2B, size: 0x8, addend: 0x0, symName: __ZNSt3__19allocatorIiE9constructB8ue170006IiJEEEvPT_DpOT0_, symObjAddr: 0x2028, symBinAddr: 0x100002F5C, symSize: 0x1C }
  - { offsetInCU: 0xAF6D, offset: 0xAF6D, size: 0x8, addend: 0x0, symName: __ZNSt3__111char_traitsIcE6lengthB8ue170006EPKc, symObjAddr: 0x2230, symBinAddr: 0x100003164, symSize: 0x34 }
  - { offsetInCU: 0xAFAE, offset: 0xAFAE, size: 0x8, addend: 0x0, symName: __ZNKSt3__113basic_ostreamIcNS_11char_traitsIcEEE6sentrycvbB8ue170006Ev, symObjAddr: 0x2264, symBinAddr: 0x100003198, symSize: 0x1C }
  - { offsetInCU: 0xAFD4, offset: 0xAFD4, size: 0x8, addend: 0x0, symName: __ZNSt3__119ostreambuf_iteratorIcNS_11char_traitsIcEEEC1B8ue170006ERNS_13basic_ostreamIcS2_EE, symObjAddr: 0x24C0, symBinAddr: 0x1000033F4, symSize: 0x34 }
  - { offsetInCU: 0xB00C, offset: 0xB00C, size: 0x8, addend: 0x0, symName: __ZNKSt3__18ios_base5flagsB8ue170006Ev, symObjAddr: 0x24F4, symBinAddr: 0x100003428, symSize: 0x18 }
  - { offsetInCU: 0xB034, offset: 0xB034, size: 0x8, addend: 0x0, symName: __ZNKSt3__19basic_iosIcNS_11char_traitsIcEEE4fillB8ue170006Ev, symObjAddr: 0x250C, symBinAddr: 0x100003440, symSize: 0x64 }
  - { offsetInCU: 0xB05C, offset: 0xB05C, size: 0x8, addend: 0x0, symName: __ZNKSt3__119ostreambuf_iteratorIcNS_11char_traitsIcEEE6failedB8ue170006Ev, symObjAddr: 0x2570, symBinAddr: 0x1000034A4, symSize: 0x24 }
  - { offsetInCU: 0xB082, offset: 0xB082, size: 0x8, addend: 0x0, symName: __ZNSt3__19basic_iosIcNS_11char_traitsIcEEE8setstateB8ue170006Ej, symObjAddr: 0x2594, symBinAddr: 0x1000034C8, symSize: 0x2C }
  - { offsetInCU: 0xB0B7, offset: 0xB0B7, size: 0x8, addend: 0x0, symName: __ZNKSt3__18ios_base5widthB8ue170006Ev, symObjAddr: 0x25C0, symBinAddr: 0x1000034F4, symSize: 0x18 }
  - { offsetInCU: 0xB0DF, offset: 0xB0DF, size: 0x8, addend: 0x0, symName: __ZNSt3__115basic_streambufIcNS_11char_traitsIcEEE5sputnB8ue170006EPKcl, symObjAddr: 0x25D8, symBinAddr: 0x10000350C, symSize: 0x3C }
  - { offsetInCU: 0xB121, offset: 0xB121, size: 0x8, addend: 0x0, symName: __ZNSt3__112basic_stringIcNS_11char_traitsIcEENS_9allocatorIcEEEC1B8ue170006Emc, symObjAddr: 0x2614, symBinAddr: 0x100003548, symSize: 0x3C }
  - { offsetInCU: 0xB169, offset: 0xB169, size: 0x8, addend: 0x0, symName: __ZNKSt3__112basic_stringIcNS_11char_traitsIcEENS_9allocatorIcEEE4dataB8ue170006Ev, symObjAddr: 0x2650, symBinAddr: 0x100003584, symSize: 0x28 }
  - { offsetInCU: 0xB18F, offset: 0xB18F, size: 0x8, addend: 0x0, symName: __ZNSt3__18ios_base5widthB8ue170006El, symObjAddr: 0x2678, symBinAddr: 0x1000035AC, symSize: 0x2C }
  - { offsetInCU: 0xB1D5, offset: 0xB1D5, size: 0x8, addend: 0x0, symName: __ZNSt3__112basic_stringIcNS_11char_traitsIcEENS_9allocatorIcEEEC2B8ue170006Emc, symObjAddr: 0x26A4, symBinAddr: 0x1000035D8, symSize: 0x4C }
  - { offsetInCU: 0xB21D, offset: 0xB21D, size: 0x8, addend: 0x0, symName: __ZNSt3__117__compressed_pairINS_12basic_stringIcNS_11char_traitsIcEENS_9allocatorIcEEE5__repES5_EC1B8ue170006INS_18__default_init_tagESA_EEOT_OT0_, symObjAddr: 0x26F0, symBinAddr: 0x100003624, symSize: 0x3C }
  - { offsetInCU: 0xB275, offset: 0xB275, size: 0x8, addend: 0x0, symName: __ZNSt3__117__compressed_pairINS_12basic_stringIcNS_11char_traitsIcEENS_9allocatorIcEEE5__repES5_EC2B8ue170006INS_18__default_init_tagESA_EEOT_OT0_, symObjAddr: 0x272C, symBinAddr: 0x100003660, symSize: 0x3C }
  - { offsetInCU: 0xB2CD, offset: 0xB2CD, size: 0x8, addend: 0x0, symName: __ZNSt3__122__compressed_pair_elemINS_12basic_stringIcNS_11char_traitsIcEENS_9allocatorIcEEE5__repELi0ELb0EEC2B8ue170006ENS_18__default_init_tagE, symObjAddr: 0x2768, symBinAddr: 0x10000369C, symSize: 0x14 }
  - { offsetInCU: 0xB302, offset: 0xB302, size: 0x8, addend: 0x0, symName: __ZNSt3__122__compressed_pair_elemINS_9allocatorIcEELi1ELb1EEC2B8ue170006ENS_18__default_init_tagE, symObjAddr: 0x277C, symBinAddr: 0x1000036B0, symSize: 0x2C }
  - { offsetInCU: 0xB337, offset: 0xB337, size: 0x8, addend: 0x0, symName: __ZNSt3__19allocatorIcEC2B8ue170006Ev, symObjAddr: 0x27A8, symBinAddr: 0x1000036DC, symSize: 0x2C }
  - { offsetInCU: 0xB361, offset: 0xB361, size: 0x8, addend: 0x0, symName: __ZNSt3__116__non_trivial_ifILb1ENS_9allocatorIcEEEC2B8ue170006Ev, symObjAddr: 0x27D4, symBinAddr: 0x100003708, symSize: 0x14 }
  - { offsetInCU: 0xB38B, offset: 0xB38B, size: 0x8, addend: 0x0, symName: __ZNKSt3__112basic_stringIcNS_11char_traitsIcEENS_9allocatorIcEEE13__get_pointerB8ue170006Ev, symObjAddr: 0x27FC, symBinAddr: 0x100003730, symSize: 0x54 }
  - { offsetInCU: 0xB3B1, offset: 0xB3B1, size: 0x8, addend: 0x0, symName: __ZNKSt3__112basic_stringIcNS_11char_traitsIcEENS_9allocatorIcEEE9__is_longB8ue170006Ev, symObjAddr: 0x2850, symBinAddr: 0x100003784, symSize: 0x38 }
  - { offsetInCU: 0xB3D7, offset: 0xB3D7, size: 0x8, addend: 0x0, symName: __ZNKSt3__112basic_stringIcNS_11char_traitsIcEENS_9allocatorIcEEE18__get_long_pointerB8ue170006Ev, symObjAddr: 0x2888, symBinAddr: 0x1000037BC, symSize: 0x28 }
  - { offsetInCU: 0xB3FD, offset: 0xB3FD, size: 0x8, addend: 0x0, symName: __ZNKSt3__112basic_stringIcNS_11char_traitsIcEENS_9allocatorIcEEE19__get_short_pointerB8ue170006Ev, symObjAddr: 0x28B0, symBinAddr: 0x1000037E4, symSize: 0x28 }
  - { offsetInCU: 0xB423, offset: 0xB423, size: 0x8, addend: 0x0, symName: __ZNKSt3__117__compressed_pairINS_12basic_stringIcNS_11char_traitsIcEENS_9allocatorIcEEE5__repES5_E5firstB8ue170006Ev, symObjAddr: 0x28D8, symBinAddr: 0x10000380C, symSize: 0x24 }
  - { offsetInCU: 0xB449, offset: 0xB449, size: 0x8, addend: 0x0, symName: __ZNKSt3__122__compressed_pair_elemINS_12basic_stringIcNS_11char_traitsIcEENS_9allocatorIcEEE5__repELi0ELb0EE5__getB8ue170006Ev, symObjAddr: 0x28FC, symBinAddr: 0x100003830, symSize: 0x14 }
  - { offsetInCU: 0xB46F, offset: 0xB46F, size: 0x8, addend: 0x0, symName: __ZNSt3__114pointer_traitsIPKcE10pointer_toB8ue170006ERS1_, symObjAddr: 0x2910, symBinAddr: 0x100003844, symSize: 0x14 }
  - { offsetInCU: 0xB492, offset: 0xB492, size: 0x8, addend: 0x0, symName: __ZNSt3__119ostreambuf_iteratorIcNS_11char_traitsIcEEEC2B8ue170006ERNS_13basic_ostreamIcS2_EE, symObjAddr: 0x2924, symBinAddr: 0x100003858, symSize: 0x54 }
  - { offsetInCU: 0xB4CA, offset: 0xB4CA, size: 0x8, addend: 0x0, symName: __ZNKSt3__19basic_iosIcNS_11char_traitsIcEEE5rdbufB8ue170006Ev, symObjAddr: 0x2978, symBinAddr: 0x1000038AC, symSize: 0x24 }
  - { offsetInCU: 0xB4F2, offset: 0xB4F2, size: 0x8, addend: 0x0, symName: __ZNKSt3__18ios_base5rdbufB8ue170006Ev, symObjAddr: 0x299C, symBinAddr: 0x1000038D0, symSize: 0x18 }
  - { offsetInCU: 0xB518, offset: 0xB518, size: 0x8, addend: 0x0, symName: __ZNSt3__111char_traitsIcE11eq_int_typeB8ue170006Eii, symObjAddr: 0x29B4, symBinAddr: 0x1000038E8, symSize: 0x28 }
  - { offsetInCU: 0xB54B, offset: 0xB54B, size: 0x8, addend: 0x0, symName: __ZNSt3__111char_traitsIcE3eofB8ue170006Ev, symObjAddr: 0x29DC, symBinAddr: 0x100003910, symSize: 0x8 }
  - { offsetInCU: 0xB55F, offset: 0xB55F, size: 0x8, addend: 0x0, symName: __ZNKSt3__19basic_iosIcNS_11char_traitsIcEEE5widenB8ue170006Ec, symObjAddr: 0x29E4, symBinAddr: 0x100003918, symSize: 0x84 }
  - { offsetInCU: 0xB5C8, offset: 0xB5C8, size: 0x8, addend: 0x0, symName: __ZNKSt3__15ctypeIcE5widenB8ue170006Ec, symObjAddr: 0x2A94, symBinAddr: 0x1000039C8, symSize: 0x38 }
  - { offsetInCU: 0xB5FD, offset: 0xB5FD, size: 0x8, addend: 0x0, symName: __ZNSt3__18ios_base8setstateB8ue170006Ej, symObjAddr: 0x2ACC, symBinAddr: 0x100003A00, symSize: 0x34 }
...
